ARM GAS  /tmp/cccGHnrd.s 			page 1


   1              		.cpu cortex-m3
   2              		.arch armv7-m
   3              		.fpu softvfp
   4              		.eabi_attribute 20, 1
   5              		.eabi_attribute 21, 1
   6              		.eabi_attribute 23, 3
   7              		.eabi_attribute 24, 1
   8              		.eabi_attribute 25, 1
   9              		.eabi_attribute 26, 1
  10              		.eabi_attribute 30, 1
  11              		.eabi_attribute 34, 1
  12              		.eabi_attribute 18, 4
  13              		.file	"BLDC_controller.c"
  14              		.text
  15              	.Ltext0:
  16              		.cfi_sections	.debug_frame
  17              		.file 1 "Src/BLDC_controller.c"
  18              		.section	.text.plook_u8s16_evencka,"ax",%progbits
  19              		.align	1
  20              		.global	plook_u8s16_evencka
  21              		.syntax unified
  22              		.thumb
  23              		.thumb_func
  25              	plook_u8s16_evencka:
  26              	.LVL0:
  27              	.LFB0:
   1:Src/BLDC_controller.c **** /*
   2:Src/BLDC_controller.c ****  * File: BLDC_controller.c
   3:Src/BLDC_controller.c ****  *
   4:Src/BLDC_controller.c ****  * Code generated for Simulink model 'BLDC_controller'.
   5:Src/BLDC_controller.c ****  *
   6:Src/BLDC_controller.c ****  * Model version                  : 1.1297
   7:Src/BLDC_controller.c ****  * Simulink Coder version         : 8.13 (R2017b) 24-Jul-2017
   8:Src/BLDC_controller.c ****  * C/C++ source code generated on : Sun Mar  6 11:02:11 2022
   9:Src/BLDC_controller.c ****  *
  10:Src/BLDC_controller.c ****  * Target selection: ert.tlc
  11:Src/BLDC_controller.c ****  * Embedded hardware selection: ARM Compatible->ARM Cortex
  12:Src/BLDC_controller.c ****  * Emulation hardware selection:
  13:Src/BLDC_controller.c ****  *    Differs from embedded hardware (MATLAB Host)
  14:Src/BLDC_controller.c ****  * Code generation objectives:
  15:Src/BLDC_controller.c ****  *    1. Execution efficiency
  16:Src/BLDC_controller.c ****  *    2. RAM efficiency
  17:Src/BLDC_controller.c ****  * Validation result: Not run
  18:Src/BLDC_controller.c ****  */
  19:Src/BLDC_controller.c **** 
  20:Src/BLDC_controller.c **** #include "BLDC_controller.h"
  21:Src/BLDC_controller.c **** 
  22:Src/BLDC_controller.c **** /* Named constants for Chart: '<S5>/F03_02_Control_Mode_Manager' */
  23:Src/BLDC_controller.c **** #define IN_ACTIVE                      ((uint8_T)1U)
  24:Src/BLDC_controller.c **** #define IN_NO_ACTIVE_CHILD             ((uint8_T)0U)
  25:Src/BLDC_controller.c **** #define IN_OPEN                        ((uint8_T)2U)
  26:Src/BLDC_controller.c **** #define IN_SPEED_MODE                  ((uint8_T)1U)
  27:Src/BLDC_controller.c **** #define IN_TORQUE_MODE                 ((uint8_T)2U)
  28:Src/BLDC_controller.c **** #define IN_VOLTAGE_MODE                ((uint8_T)3U)
  29:Src/BLDC_controller.c **** #define OPEN_MODE                      ((uint8_T)0U)
  30:Src/BLDC_controller.c **** #define SPD_MODE                       ((uint8_T)2U)
  31:Src/BLDC_controller.c **** #define TRQ_MODE                       ((uint8_T)3U)
ARM GAS  /tmp/cccGHnrd.s 			page 2


  32:Src/BLDC_controller.c **** #define VLT_MODE                       ((uint8_T)1U)
  33:Src/BLDC_controller.c **** #ifndef UCHAR_MAX
  34:Src/BLDC_controller.c **** #include <limits.h>
  35:Src/BLDC_controller.c **** #endif
  36:Src/BLDC_controller.c **** 
  37:Src/BLDC_controller.c **** #if ( UCHAR_MAX != (0xFFU) ) || ( SCHAR_MAX != (0x7F) )
  38:Src/BLDC_controller.c **** #error Code was generated for compiler with different sized uchar/char. \
  39:Src/BLDC_controller.c **** Consider adjusting Test hardware word size settings on the \
  40:Src/BLDC_controller.c **** Hardware Implementation pane to match your compiler word sizes as \
  41:Src/BLDC_controller.c **** defined in limits.h of the compiler. Alternatively, you can \
  42:Src/BLDC_controller.c **** select the Test hardware is the same as production hardware option and \
  43:Src/BLDC_controller.c **** select the Enable portable word sizes option on the Code Generation > \
  44:Src/BLDC_controller.c **** Verification pane for ERT based targets, which will disable the \
  45:Src/BLDC_controller.c **** preprocessor word size checks.
  46:Src/BLDC_controller.c **** #endif
  47:Src/BLDC_controller.c **** 
  48:Src/BLDC_controller.c **** #if ( USHRT_MAX != (0xFFFFU) ) || ( SHRT_MAX != (0x7FFF) )
  49:Src/BLDC_controller.c **** #error Code was generated for compiler with different sized ushort/short. \
  50:Src/BLDC_controller.c **** Consider adjusting Test hardware word size settings on the \
  51:Src/BLDC_controller.c **** Hardware Implementation pane to match your compiler word sizes as \
  52:Src/BLDC_controller.c **** defined in limits.h of the compiler. Alternatively, you can \
  53:Src/BLDC_controller.c **** select the Test hardware is the same as production hardware option and \
  54:Src/BLDC_controller.c **** select the Enable portable word sizes option on the Code Generation > \
  55:Src/BLDC_controller.c **** Verification pane for ERT based targets, which will disable the \
  56:Src/BLDC_controller.c **** preprocessor word size checks.
  57:Src/BLDC_controller.c **** #endif
  58:Src/BLDC_controller.c **** 
  59:Src/BLDC_controller.c **** #if ( UINT_MAX != (0xFFFFFFFFU) ) || ( INT_MAX != (0x7FFFFFFF) )
  60:Src/BLDC_controller.c **** #error Code was generated for compiler with different sized uint/int. \
  61:Src/BLDC_controller.c **** Consider adjusting Test hardware word size settings on the \
  62:Src/BLDC_controller.c **** Hardware Implementation pane to match your compiler word sizes as \
  63:Src/BLDC_controller.c **** defined in limits.h of the compiler. Alternatively, you can \
  64:Src/BLDC_controller.c **** select the Test hardware is the same as production hardware option and \
  65:Src/BLDC_controller.c **** select the Enable portable word sizes option on the Code Generation > \
  66:Src/BLDC_controller.c **** Verification pane for ERT based targets, which will disable the \
  67:Src/BLDC_controller.c **** preprocessor word size checks.
  68:Src/BLDC_controller.c **** #endif
  69:Src/BLDC_controller.c **** 
  70:Src/BLDC_controller.c **** #if ( ULONG_MAX != (0xFFFFFFFFU) ) || ( LONG_MAX != (0x7FFFFFFF) )
  71:Src/BLDC_controller.c **** #error Code was generated for compiler with different sized ulong/long. \
  72:Src/BLDC_controller.c **** Consider adjusting Test hardware word size settings on the \
  73:Src/BLDC_controller.c **** Hardware Implementation pane to match your compiler word sizes as \
  74:Src/BLDC_controller.c **** defined in limits.h of the compiler. Alternatively, you can \
  75:Src/BLDC_controller.c **** select the Test hardware is the same as production hardware option and \
  76:Src/BLDC_controller.c **** select the Enable portable word sizes option on the Code Generation > \
  77:Src/BLDC_controller.c **** Verification pane for ERT based targets, which will disable the \
  78:Src/BLDC_controller.c **** preprocessor word size checks.
  79:Src/BLDC_controller.c **** #endif
  80:Src/BLDC_controller.c **** 
  81:Src/BLDC_controller.c **** #if 0
  82:Src/BLDC_controller.c **** 
  83:Src/BLDC_controller.c **** /* Skip this size verification because of preprocessor limitation */
  84:Src/BLDC_controller.c **** #if ( ULLONG_MAX != (0xFFFFFFFFFFFFFFFFULL) ) || ( LLONG_MAX != (0x7FFFFFFFFFFFFFFFLL) )
  85:Src/BLDC_controller.c **** #error Code was generated for compiler with different sized ulong_long/long_long. \
  86:Src/BLDC_controller.c **** Consider adjusting Test hardware word size settings on the \
  87:Src/BLDC_controller.c **** Hardware Implementation pane to match your compiler word sizes as \
  88:Src/BLDC_controller.c **** defined in limits.h of the compiler. Alternatively, you can \
ARM GAS  /tmp/cccGHnrd.s 			page 3


  89:Src/BLDC_controller.c **** select the Test hardware is the same as production hardware option and \
  90:Src/BLDC_controller.c **** select the Enable portable word sizes option on the Code Generation > \
  91:Src/BLDC_controller.c **** Verification pane for ERT based targets, which will disable the \
  92:Src/BLDC_controller.c **** preprocessor word size checks.
  93:Src/BLDC_controller.c **** #endif
  94:Src/BLDC_controller.c **** #endif
  95:Src/BLDC_controller.c **** 
  96:Src/BLDC_controller.c **** uint8_T plook_u8s16_evencka(int16_T u, int16_T bp0, uint16_T bpSpace, uint32_T
  97:Src/BLDC_controller.c ****   maxIndex);
  98:Src/BLDC_controller.c **** uint8_T plook_u8u16_evencka(uint16_T u, uint16_T bp0, uint16_T bpSpace, uint32_T
  99:Src/BLDC_controller.c ****   maxIndex);
 100:Src/BLDC_controller.c **** int32_T div_nde_s32_floor(int32_T numerator, int32_T denominator);
 101:Src/BLDC_controller.c **** extern void Counter_Init(DW_Counter *localDW, int16_T rtp_z_cntInit);
 102:Src/BLDC_controller.c **** extern int16_T Counter(int16_T rtu_inc, int16_T rtu_max, boolean_T rtu_rst,
 103:Src/BLDC_controller.c ****   DW_Counter *localDW);
 104:Src/BLDC_controller.c **** extern void Low_Pass_Filter_Reset(DW_Low_Pass_Filter *localDW);
 105:Src/BLDC_controller.c **** extern void Low_Pass_Filter(const int16_T rtu_u[2], uint16_T rtu_coef, int16_T
 106:Src/BLDC_controller.c ****   rty_y[2], DW_Low_Pass_Filter *localDW);
 107:Src/BLDC_controller.c **** extern void Counter_b_Init(DW_Counter_b *localDW, uint16_T rtp_z_cntInit);
 108:Src/BLDC_controller.c **** extern void Counter_n(uint16_T rtu_inc, uint16_T rtu_max, boolean_T rtu_rst,
 109:Src/BLDC_controller.c ****                       uint16_T *rty_cnt, DW_Counter_b *localDW);
 110:Src/BLDC_controller.c **** extern void either_edge(boolean_T rtu_u, boolean_T *rty_y, DW_either_edge
 111:Src/BLDC_controller.c ****   *localDW);
 112:Src/BLDC_controller.c **** extern void Debounce_Filter_Init(DW_Debounce_Filter *localDW);
 113:Src/BLDC_controller.c **** extern void Debounce_Filter(boolean_T rtu_u, uint16_T rtu_tAcv, uint16_T
 114:Src/BLDC_controller.c ****   rtu_tDeacv, boolean_T *rty_y, DW_Debounce_Filter *localDW);
 115:Src/BLDC_controller.c **** extern void I_backCalc_fixdt_Init(DW_I_backCalc_fixdt *localDW, int32_T
 116:Src/BLDC_controller.c ****   rtp_yInit);
 117:Src/BLDC_controller.c **** extern void I_backCalc_fixdt_Reset(DW_I_backCalc_fixdt *localDW, int32_T
 118:Src/BLDC_controller.c ****   rtp_yInit);
 119:Src/BLDC_controller.c **** extern void I_backCalc_fixdt(int16_T rtu_err, uint16_T rtu_I, uint16_T rtu_Kb,
 120:Src/BLDC_controller.c ****   int16_T rtu_satMax, int16_T rtu_satMin, int16_T *rty_out, DW_I_backCalc_fixdt *
 121:Src/BLDC_controller.c ****   localDW);
 122:Src/BLDC_controller.c **** extern void PI_clamp_fixdt_Init(DW_PI_clamp_fixdt *localDW);
 123:Src/BLDC_controller.c **** extern void PI_clamp_fixdt_Reset(DW_PI_clamp_fixdt *localDW);
 124:Src/BLDC_controller.c **** extern void PI_clamp_fixdt(int16_T rtu_err, uint16_T rtu_P, uint16_T rtu_I,
 125:Src/BLDC_controller.c ****   int32_T rtu_init, int16_T rtu_satMax, int16_T rtu_satMin, int32_T
 126:Src/BLDC_controller.c ****   rtu_ext_limProt, int16_T *rty_out, DW_PI_clamp_fixdt *localDW);
 127:Src/BLDC_controller.c **** extern void PI_clamp_fixdt_d_Init(DW_PI_clamp_fixdt_m *localDW);
 128:Src/BLDC_controller.c **** extern void PI_clamp_fixdt_b_Reset(DW_PI_clamp_fixdt_m *localDW);
 129:Src/BLDC_controller.c **** extern void PI_clamp_fixdt_l(int16_T rtu_err, uint16_T rtu_P, uint16_T rtu_I,
 130:Src/BLDC_controller.c ****   int16_T rtu_init, int16_T rtu_satMax, int16_T rtu_satMin, int32_T
 131:Src/BLDC_controller.c ****   rtu_ext_limProt, int16_T *rty_out, DW_PI_clamp_fixdt_m *localDW);
 132:Src/BLDC_controller.c **** extern void PI_clamp_fixdt_f_Init(DW_PI_clamp_fixdt_g *localDW);
 133:Src/BLDC_controller.c **** extern void PI_clamp_fixdt_g_Reset(DW_PI_clamp_fixdt_g *localDW);
 134:Src/BLDC_controller.c **** extern void PI_clamp_fixdt_k(int16_T rtu_err, uint16_T rtu_P, uint16_T rtu_I,
 135:Src/BLDC_controller.c ****   int16_T rtu_init, int16_T rtu_satMax, int16_T rtu_satMin, int32_T
 136:Src/BLDC_controller.c ****   rtu_ext_limProt, int16_T *rty_out, DW_PI_clamp_fixdt_g *localDW);
 137:Src/BLDC_controller.c **** uint8_T plook_u8s16_evencka(int16_T u, int16_T bp0, uint16_T bpSpace, uint32_T
 138:Src/BLDC_controller.c ****   maxIndex)
 139:Src/BLDC_controller.c **** {
  28              		.loc 1 139 1 view -0
  29              		.cfi_startproc
  30              		@ args = 0, pretend = 0, frame = 0
  31              		@ frame_needed = 0, uses_anonymous_args = 0
  32              		@ link register save eliminated.
 140:Src/BLDC_controller.c ****   uint8_T bpIndex;
ARM GAS  /tmp/cccGHnrd.s 			page 4


  33              		.loc 1 140 3 view .LVU1
 141:Src/BLDC_controller.c ****   uint16_T fbpIndex;
  34              		.loc 1 141 3 view .LVU2
 142:Src/BLDC_controller.c **** 
 143:Src/BLDC_controller.c ****   /* Prelookup - Index only
 144:Src/BLDC_controller.c ****      Index Search method: 'even'
 145:Src/BLDC_controller.c ****      Extrapolation method: 'Clip'
 146:Src/BLDC_controller.c ****      Use previous index: 'off'
 147:Src/BLDC_controller.c ****      Use last breakpoint for index at or above upper limit: 'on'
 148:Src/BLDC_controller.c ****      Remove protection against out-of-range input in generated code: 'off'
 149:Src/BLDC_controller.c ****    */
 150:Src/BLDC_controller.c ****   if (u <= bp0) {
  35              		.loc 1 150 3 view .LVU3
  36              		.loc 1 150 6 is_stmt 0 view .LVU4
  37 0000 8842     		cmp	r0, r1
  38 0002 09DD     		ble	.L4
 151:Src/BLDC_controller.c ****     bpIndex = 0U;
 152:Src/BLDC_controller.c ****   } else {
 153:Src/BLDC_controller.c ****     fbpIndex = (uint16_T)((uint32_T)(uint16_T)(u - bp0) / bpSpace);
  39              		.loc 1 153 5 is_stmt 1 view .LVU5
  40              		.loc 1 153 37 is_stmt 0 view .LVU6
  41 0004 401A     		subs	r0, r0, r1
  42              	.LVL1:
  43              		.loc 1 153 37 view .LVU7
  44 0006 80B2     		uxth	r0, r0
  45              		.loc 1 153 14 view .LVU8
  46 0008 B0FBF2F2 		udiv	r2, r0, r2
  47              	.LVL2:
 154:Src/BLDC_controller.c ****     if (fbpIndex < maxIndex) {
  48              		.loc 1 154 5 is_stmt 1 view .LVU9
  49              		.loc 1 154 8 is_stmt 0 view .LVU10
  50 000c 9A42     		cmp	r2, r3
  51 000e 01D2     		bcs	.L3
 155:Src/BLDC_controller.c ****       bpIndex = (uint8_T)fbpIndex;
  52              		.loc 1 155 7 is_stmt 1 view .LVU11
  53              		.loc 1 155 15 is_stmt 0 view .LVU12
  54 0010 D0B2     		uxtb	r0, r2
  55              	.LVL3:
  56              		.loc 1 155 15 view .LVU13
  57 0012 7047     		bx	lr
  58              	.LVL4:
  59              	.L3:
 156:Src/BLDC_controller.c ****     } else {
 157:Src/BLDC_controller.c ****       bpIndex = (uint8_T)maxIndex;
  60              		.loc 1 157 7 is_stmt 1 view .LVU14
  61              		.loc 1 157 15 is_stmt 0 view .LVU15
  62 0014 D8B2     		uxtb	r0, r3
  63              	.LVL5:
  64              		.loc 1 157 15 view .LVU16
  65 0016 7047     		bx	lr
  66              	.LVL6:
  67              	.L4:
 151:Src/BLDC_controller.c ****   } else {
  68              		.loc 1 151 13 view .LVU17
  69 0018 0020     		movs	r0, #0
  70              	.LVL7:
 158:Src/BLDC_controller.c ****     }
ARM GAS  /tmp/cccGHnrd.s 			page 5


 159:Src/BLDC_controller.c ****   }
 160:Src/BLDC_controller.c **** 
 161:Src/BLDC_controller.c ****   return bpIndex;
  71              		.loc 1 161 3 is_stmt 1 view .LVU18
 162:Src/BLDC_controller.c **** }
  72              		.loc 1 162 1 is_stmt 0 view .LVU19
  73 001a 7047     		bx	lr
  74              		.cfi_endproc
  75              	.LFE0:
  77              		.section	.text.plook_u8u16_evencka,"ax",%progbits
  78              		.align	1
  79              		.global	plook_u8u16_evencka
  80              		.syntax unified
  81              		.thumb
  82              		.thumb_func
  84              	plook_u8u16_evencka:
  85              	.LVL8:
  86              	.LFB1:
 163:Src/BLDC_controller.c **** 
 164:Src/BLDC_controller.c **** uint8_T plook_u8u16_evencka(uint16_T u, uint16_T bp0, uint16_T bpSpace, uint32_T
 165:Src/BLDC_controller.c ****   maxIndex)
 166:Src/BLDC_controller.c **** {
  87              		.loc 1 166 1 is_stmt 1 view -0
  88              		.cfi_startproc
  89              		@ args = 0, pretend = 0, frame = 0
  90              		@ frame_needed = 0, uses_anonymous_args = 0
  91              		@ link register save eliminated.
 167:Src/BLDC_controller.c ****   uint8_T bpIndex;
  92              		.loc 1 167 3 view .LVU21
 168:Src/BLDC_controller.c ****   uint16_T fbpIndex;
  93              		.loc 1 168 3 view .LVU22
 169:Src/BLDC_controller.c **** 
 170:Src/BLDC_controller.c ****   /* Prelookup - Index only
 171:Src/BLDC_controller.c ****      Index Search method: 'even'
 172:Src/BLDC_controller.c ****      Extrapolation method: 'Clip'
 173:Src/BLDC_controller.c ****      Use previous index: 'off'
 174:Src/BLDC_controller.c ****      Use last breakpoint for index at or above upper limit: 'on'
 175:Src/BLDC_controller.c ****      Remove protection against out-of-range input in generated code: 'off'
 176:Src/BLDC_controller.c ****    */
 177:Src/BLDC_controller.c ****   if (u <= bp0) {
  94              		.loc 1 177 3 view .LVU23
  95              		.loc 1 177 6 is_stmt 0 view .LVU24
  96 0000 8842     		cmp	r0, r1
  97 0002 09D9     		bls	.L8
 178:Src/BLDC_controller.c ****     bpIndex = 0U;
 179:Src/BLDC_controller.c ****   } else {
 180:Src/BLDC_controller.c ****     fbpIndex = (uint16_T)((uint32_T)(uint16_T)((uint32_T)u - bp0) / bpSpace);
  98              		.loc 1 180 5 is_stmt 1 view .LVU25
  99              		.loc 1 180 37 is_stmt 0 view .LVU26
 100 0004 401A     		subs	r0, r0, r1
 101              	.LVL9:
 102              		.loc 1 180 37 view .LVU27
 103 0006 80B2     		uxth	r0, r0
 104              		.loc 1 180 14 view .LVU28
 105 0008 B0FBF2F2 		udiv	r2, r0, r2
 106              	.LVL10:
 181:Src/BLDC_controller.c ****     if (fbpIndex < maxIndex) {
ARM GAS  /tmp/cccGHnrd.s 			page 6


 107              		.loc 1 181 5 is_stmt 1 view .LVU29
 108              		.loc 1 181 8 is_stmt 0 view .LVU30
 109 000c 9A42     		cmp	r2, r3
 110 000e 01D2     		bcs	.L7
 182:Src/BLDC_controller.c ****       bpIndex = (uint8_T)fbpIndex;
 111              		.loc 1 182 7 is_stmt 1 view .LVU31
 112              		.loc 1 182 15 is_stmt 0 view .LVU32
 113 0010 D0B2     		uxtb	r0, r2
 114              	.LVL11:
 115              		.loc 1 182 15 view .LVU33
 116 0012 7047     		bx	lr
 117              	.LVL12:
 118              	.L7:
 183:Src/BLDC_controller.c ****     } else {
 184:Src/BLDC_controller.c ****       bpIndex = (uint8_T)maxIndex;
 119              		.loc 1 184 7 is_stmt 1 view .LVU34
 120              		.loc 1 184 15 is_stmt 0 view .LVU35
 121 0014 D8B2     		uxtb	r0, r3
 122              	.LVL13:
 123              		.loc 1 184 15 view .LVU36
 124 0016 7047     		bx	lr
 125              	.LVL14:
 126              	.L8:
 178:Src/BLDC_controller.c ****   } else {
 127              		.loc 1 178 13 view .LVU37
 128 0018 0020     		movs	r0, #0
 129              	.LVL15:
 185:Src/BLDC_controller.c ****     }
 186:Src/BLDC_controller.c ****   }
 187:Src/BLDC_controller.c **** 
 188:Src/BLDC_controller.c ****   return bpIndex;
 130              		.loc 1 188 3 is_stmt 1 view .LVU38
 189:Src/BLDC_controller.c **** }
 131              		.loc 1 189 1 is_stmt 0 view .LVU39
 132 001a 7047     		bx	lr
 133              		.cfi_endproc
 134              	.LFE1:
 136              		.section	.text.div_nde_s32_floor,"ax",%progbits
 137              		.align	1
 138              		.global	div_nde_s32_floor
 139              		.syntax unified
 140              		.thumb
 141              		.thumb_func
 143              	div_nde_s32_floor:
 144              	.LVL16:
 145              	.LFB2:
 190:Src/BLDC_controller.c **** 
 191:Src/BLDC_controller.c **** int32_T div_nde_s32_floor(int32_T numerator, int32_T denominator)
 192:Src/BLDC_controller.c **** {
 146              		.loc 1 192 1 is_stmt 1 view -0
 147              		.cfi_startproc
 148              		@ args = 0, pretend = 0, frame = 0
 149              		@ frame_needed = 0, uses_anonymous_args = 0
 150              		@ link register save eliminated.
 193:Src/BLDC_controller.c ****   return (((numerator < 0) != (denominator < 0)) && (numerator % denominator !=
 151              		.loc 1 193 3 view .LVU41
 194:Src/BLDC_controller.c ****            0) ? -1 : 0) + numerator / denominator;
ARM GAS  /tmp/cccGHnrd.s 			page 7


 152              		.loc 1 194 20 is_stmt 0 view .LVU42
 153 0000 90EA010F 		teq	r0, r1
 154 0004 04D4     		bmi	.L13
 155              		.loc 1 194 20 discriminator 1 view .LVU43
 156 0006 0023     		movs	r3, #0
 157              	.L10:
 158              		.loc 1 194 37 discriminator 3 view .LVU44
 159 0008 90FBF1F0 		sdiv	r0, r0, r1
 160              	.LVL17:
 195:Src/BLDC_controller.c **** }
 161              		.loc 1 195 1 view .LVU45
 162 000c 1844     		add	r0, r0, r3
 163 000e 7047     		bx	lr
 164              	.LVL18:
 165              	.L13:
 193:Src/BLDC_controller.c ****   return (((numerator < 0) != (denominator < 0)) && (numerator % denominator !=
 166              		.loc 1 193 64 view .LVU46
 167 0010 90FBF1F3 		sdiv	r3, r0, r1
 168 0014 01FB1303 		mls	r3, r1, r3, r0
 193:Src/BLDC_controller.c ****   return (((numerator < 0) != (denominator < 0)) && (numerator % denominator !=
 169              		.loc 1 193 50 view .LVU47
 170 0018 002B     		cmp	r3, #0
 171 001a F5D0     		beq	.L10
 194:Src/BLDC_controller.c ****            0) ? -1 : 0) + numerator / denominator;
 172              		.loc 1 194 20 view .LVU48
 173 001c 4FF0FF33 		mov	r3, #-1
 174 0020 F2E7     		b	.L10
 175              		.cfi_endproc
 176              	.LFE2:
 178              		.section	.text.Counter_Init,"ax",%progbits
 179              		.align	1
 180              		.global	Counter_Init
 181              		.syntax unified
 182              		.thumb
 183              		.thumb_func
 185              	Counter_Init:
 186              	.LVL19:
 187              	.LFB3:
 196:Src/BLDC_controller.c **** 
 197:Src/BLDC_controller.c **** /* System initialize for atomic system: '<S13>/Counter' */
 198:Src/BLDC_controller.c **** void Counter_Init(DW_Counter *localDW, int16_T rtp_z_cntInit)
 199:Src/BLDC_controller.c **** {
 188              		.loc 1 199 1 is_stmt 1 view -0
 189              		.cfi_startproc
 190              		@ args = 0, pretend = 0, frame = 0
 191              		@ frame_needed = 0, uses_anonymous_args = 0
 192              		@ link register save eliminated.
 200:Src/BLDC_controller.c ****   /* InitializeConditions for UnitDelay: '<S18>/UnitDelay' */
 201:Src/BLDC_controller.c ****   localDW->UnitDelay_DSTATE = rtp_z_cntInit;
 193              		.loc 1 201 3 view .LVU50
 194              		.loc 1 201 29 is_stmt 0 view .LVU51
 195 0000 0180     		strh	r1, [r0]	@ movhi
 202:Src/BLDC_controller.c **** }
 196              		.loc 1 202 1 view .LVU52
 197 0002 7047     		bx	lr
 198              		.cfi_endproc
 199              	.LFE3:
ARM GAS  /tmp/cccGHnrd.s 			page 8


 201              		.section	.text.Counter,"ax",%progbits
 202              		.align	1
 203              		.global	Counter
 204              		.syntax unified
 205              		.thumb
 206              		.thumb_func
 208              	Counter:
 209              	.LVL20:
 210              	.LFB4:
 203:Src/BLDC_controller.c **** 
 204:Src/BLDC_controller.c **** /* Output and update for atomic system: '<S13>/Counter' */
 205:Src/BLDC_controller.c **** int16_T Counter(int16_T rtu_inc, int16_T rtu_max, boolean_T rtu_rst, DW_Counter *
 206:Src/BLDC_controller.c ****                 localDW)
 207:Src/BLDC_controller.c **** {
 211              		.loc 1 207 1 is_stmt 1 view -0
 212              		.cfi_startproc
 213              		@ args = 0, pretend = 0, frame = 0
 214              		@ frame_needed = 0, uses_anonymous_args = 0
 215              		@ link register save eliminated.
 208:Src/BLDC_controller.c ****   int16_T rtu_rst_0;
 216              		.loc 1 208 3 view .LVU54
 209:Src/BLDC_controller.c ****   int16_T rty_cnt_0;
 217              		.loc 1 209 3 view .LVU55
 210:Src/BLDC_controller.c **** 
 211:Src/BLDC_controller.c ****   /* Switch: '<S18>/Switch1' incorporates:
 212:Src/BLDC_controller.c ****    *  Constant: '<S18>/Constant23'
 213:Src/BLDC_controller.c ****    *  UnitDelay: '<S18>/UnitDelay'
 214:Src/BLDC_controller.c ****    */
 215:Src/BLDC_controller.c ****   if (rtu_rst) {
 218              		.loc 1 215 3 view .LVU56
 219              		.loc 1 215 6 is_stmt 0 view .LVU57
 220 0000 3AB9     		cbnz	r2, .L19
 216:Src/BLDC_controller.c ****     rtu_rst_0 = 0;
 217:Src/BLDC_controller.c ****   } else {
 218:Src/BLDC_controller.c ****     rtu_rst_0 = localDW->UnitDelay_DSTATE;
 221              		.loc 1 218 5 is_stmt 1 view .LVU58
 222              		.loc 1 218 15 is_stmt 0 view .LVU59
 223 0002 B3F90020 		ldrsh	r2, [r3]
 224              	.LVL21:
 225              	.L16:
 219:Src/BLDC_controller.c ****   }
 220:Src/BLDC_controller.c **** 
 221:Src/BLDC_controller.c ****   /* End of Switch: '<S18>/Switch1' */
 222:Src/BLDC_controller.c **** 
 223:Src/BLDC_controller.c ****   /* Sum: '<S16>/Sum1' */
 224:Src/BLDC_controller.c ****   rty_cnt_0 = (int16_T)(rtu_inc + rtu_rst_0);
 226              		.loc 1 224 3 is_stmt 1 view .LVU60
 227              		.loc 1 224 33 is_stmt 0 view .LVU61
 228 0006 1044     		add	r0, r0, r2
 229              	.LVL22:
 230              		.loc 1 224 13 view .LVU62
 231 0008 00B2     		sxth	r0, r0
 232              	.LVL23:
 225:Src/BLDC_controller.c **** 
 226:Src/BLDC_controller.c ****   /* MinMax: '<S16>/MinMax' */
 227:Src/BLDC_controller.c ****   if (rty_cnt_0 < rtu_max) {
 233              		.loc 1 227 3 is_stmt 1 view .LVU63
ARM GAS  /tmp/cccGHnrd.s 			page 9


 234              		.loc 1 227 6 is_stmt 0 view .LVU64
 235 000a 8842     		cmp	r0, r1
 236 000c 03DA     		bge	.L17
 228:Src/BLDC_controller.c ****     /* Update for UnitDelay: '<S18>/UnitDelay' */
 229:Src/BLDC_controller.c ****     localDW->UnitDelay_DSTATE = rty_cnt_0;
 237              		.loc 1 229 5 is_stmt 1 view .LVU65
 238              		.loc 1 229 31 is_stmt 0 view .LVU66
 239 000e 1880     		strh	r0, [r3]	@ movhi
 240 0010 7047     		bx	lr
 241              	.LVL24:
 242              	.L19:
 216:Src/BLDC_controller.c ****   } else {
 243              		.loc 1 216 15 view .LVU67
 244 0012 0022     		movs	r2, #0
 245              	.LVL25:
 216:Src/BLDC_controller.c ****   } else {
 246              		.loc 1 216 15 view .LVU68
 247 0014 F7E7     		b	.L16
 248              	.LVL26:
 249              	.L17:
 230:Src/BLDC_controller.c ****   } else {
 231:Src/BLDC_controller.c ****     /* Update for UnitDelay: '<S18>/UnitDelay' */
 232:Src/BLDC_controller.c ****     localDW->UnitDelay_DSTATE = rtu_max;
 250              		.loc 1 232 5 is_stmt 1 view .LVU69
 251              		.loc 1 232 31 is_stmt 0 view .LVU70
 252 0016 1980     		strh	r1, [r3]	@ movhi
 233:Src/BLDC_controller.c ****   }
 234:Src/BLDC_controller.c **** 
 235:Src/BLDC_controller.c ****   /* End of MinMax: '<S16>/MinMax' */
 236:Src/BLDC_controller.c ****   return rty_cnt_0;
 253              		.loc 1 236 3 is_stmt 1 view .LVU71
 237:Src/BLDC_controller.c **** }
 254              		.loc 1 237 1 is_stmt 0 view .LVU72
 255 0018 7047     		bx	lr
 256              		.cfi_endproc
 257              	.LFE4:
 259              		.section	.text.Low_Pass_Filter_Reset,"ax",%progbits
 260              		.align	1
 261              		.global	Low_Pass_Filter_Reset
 262              		.syntax unified
 263              		.thumb
 264              		.thumb_func
 266              	Low_Pass_Filter_Reset:
 267              	.LVL27:
 268              	.LFB5:
 238:Src/BLDC_controller.c **** 
 239:Src/BLDC_controller.c **** /* System reset for atomic system: '<S50>/Low_Pass_Filter' */
 240:Src/BLDC_controller.c **** void Low_Pass_Filter_Reset(DW_Low_Pass_Filter *localDW)
 241:Src/BLDC_controller.c **** {
 269              		.loc 1 241 1 is_stmt 1 view -0
 270              		.cfi_startproc
 271              		@ args = 0, pretend = 0, frame = 0
 272              		@ frame_needed = 0, uses_anonymous_args = 0
 273              		@ link register save eliminated.
 242:Src/BLDC_controller.c ****   /* InitializeConditions for UnitDelay: '<S56>/UnitDelay1' */
 243:Src/BLDC_controller.c ****   localDW->UnitDelay1_DSTATE[0] = 0;
 274              		.loc 1 243 3 view .LVU74
ARM GAS  /tmp/cccGHnrd.s 			page 10


 275              		.loc 1 243 33 is_stmt 0 view .LVU75
 276 0000 0023     		movs	r3, #0
 277 0002 0360     		str	r3, [r0]
 244:Src/BLDC_controller.c ****   localDW->UnitDelay1_DSTATE[1] = 0;
 278              		.loc 1 244 3 is_stmt 1 view .LVU76
 279              		.loc 1 244 33 is_stmt 0 view .LVU77
 280 0004 4360     		str	r3, [r0, #4]
 245:Src/BLDC_controller.c **** }
 281              		.loc 1 245 1 view .LVU78
 282 0006 7047     		bx	lr
 283              		.cfi_endproc
 284              	.LFE5:
 286              		.section	.text.Low_Pass_Filter,"ax",%progbits
 287              		.align	1
 288              		.global	Low_Pass_Filter
 289              		.syntax unified
 290              		.thumb
 291              		.thumb_func
 293              	Low_Pass_Filter:
 294              	.LVL28:
 295              	.LFB6:
 246:Src/BLDC_controller.c **** 
 247:Src/BLDC_controller.c **** /* Output and update for atomic system: '<S50>/Low_Pass_Filter' */
 248:Src/BLDC_controller.c **** void Low_Pass_Filter(const int16_T rtu_u[2], uint16_T rtu_coef, int16_T rty_y[2],
 249:Src/BLDC_controller.c ****                      DW_Low_Pass_Filter *localDW)
 250:Src/BLDC_controller.c **** {
 296              		.loc 1 250 1 is_stmt 1 view -0
 297              		.cfi_startproc
 298              		@ args = 0, pretend = 0, frame = 0
 299              		@ frame_needed = 0, uses_anonymous_args = 0
 300              		@ link register save eliminated.
 301              		.loc 1 250 1 is_stmt 0 view .LVU80
 302 0000 30B4     		push	{r4, r5}
 303              	.LCFI0:
 304              		.cfi_def_cfa_offset 8
 305              		.cfi_offset 4, -8
 306              		.cfi_offset 5, -4
 251:Src/BLDC_controller.c ****   int32_T rtb_Sum3_g;
 307              		.loc 1 251 3 is_stmt 1 view .LVU81
 252:Src/BLDC_controller.c **** 
 253:Src/BLDC_controller.c ****   /* Sum: '<S56>/Sum2' incorporates:
 254:Src/BLDC_controller.c ****    *  UnitDelay: '<S56>/UnitDelay1'
 255:Src/BLDC_controller.c ****    */
 256:Src/BLDC_controller.c ****   rtb_Sum3_g = rtu_u[0] - (localDW->UnitDelay1_DSTATE[0] >> 16);
 308              		.loc 1 256 3 view .LVU82
 309              		.loc 1 256 21 is_stmt 0 view .LVU83
 310 0002 B0F90040 		ldrsh	r4, [r0]
 311              		.loc 1 256 54 view .LVU84
 312 0006 1D68     		ldr	r5, [r3]
 313              		.loc 1 256 14 view .LVU85
 314 0008 A4EB2544 		sub	r4, r4, r5, asr #16
 315              	.LVL29:
 257:Src/BLDC_controller.c ****   if (rtb_Sum3_g > 32767) {
 316              		.loc 1 257 3 is_stmt 1 view .LVU86
 317              		.loc 1 257 6 is_stmt 0 view .LVU87
 318 000c B4F5004F 		cmp	r4, #32768
 319 0010 04DA     		bge	.L24
ARM GAS  /tmp/cccGHnrd.s 			page 11


 258:Src/BLDC_controller.c ****     rtb_Sum3_g = 32767;
 259:Src/BLDC_controller.c ****   } else {
 260:Src/BLDC_controller.c ****     if (rtb_Sum3_g < -32768) {
 320              		.loc 1 260 5 is_stmt 1 view .LVU88
 321              		.loc 1 260 8 is_stmt 0 view .LVU89
 322 0012 14F5004F 		cmn	r4, #32768
 323 0016 03DA     		bge	.L22
 261:Src/BLDC_controller.c ****       rtb_Sum3_g = -32768;
 324              		.loc 1 261 18 view .LVU90
 325 0018 0F4C     		ldr	r4, .L29
 326              	.LVL30:
 327              		.loc 1 261 18 view .LVU91
 328 001a 01E0     		b	.L22
 329              	.LVL31:
 330              	.L24:
 258:Src/BLDC_controller.c ****     rtb_Sum3_g = 32767;
 331              		.loc 1 258 16 view .LVU92
 332 001c 47F6FF74 		movw	r4, #32767
 333              	.LVL32:
 334              	.L22:
 262:Src/BLDC_controller.c ****     }
 263:Src/BLDC_controller.c ****   }
 264:Src/BLDC_controller.c **** 
 265:Src/BLDC_controller.c ****   /* Sum: '<S56>/Sum3' incorporates:
 266:Src/BLDC_controller.c ****    *  Product: '<S56>/Divide3'
 267:Src/BLDC_controller.c ****    *  Sum: '<S56>/Sum2'
 268:Src/BLDC_controller.c ****    *  UnitDelay: '<S56>/UnitDelay1'
 269:Src/BLDC_controller.c ****    */
 270:Src/BLDC_controller.c ****   rtb_Sum3_g = rtu_coef * rtb_Sum3_g + localDW->UnitDelay1_DSTATE[0];
 335              		.loc 1 270 3 is_stmt 1 view .LVU93
 336              		.loc 1 270 14 is_stmt 0 view .LVU94
 337 0020 04FB0154 		mla	r4, r4, r1, r5
 338              	.LVL33:
 271:Src/BLDC_controller.c **** 
 272:Src/BLDC_controller.c ****   /* DataTypeConversion: '<S56>/Data Type Conversion' */
 273:Src/BLDC_controller.c ****   rty_y[0] = (int16_T)(rtb_Sum3_g >> 16);
 339              		.loc 1 273 3 is_stmt 1 view .LVU95
 340              		.loc 1 273 14 is_stmt 0 view .LVU96
 341 0024 2514     		asrs	r5, r4, #16
 342              		.loc 1 273 12 view .LVU97
 343 0026 1580     		strh	r5, [r2]	@ movhi
 274:Src/BLDC_controller.c **** 
 275:Src/BLDC_controller.c ****   /* Update for UnitDelay: '<S56>/UnitDelay1' */
 276:Src/BLDC_controller.c ****   localDW->UnitDelay1_DSTATE[0] = rtb_Sum3_g;
 344              		.loc 1 276 3 is_stmt 1 view .LVU98
 345              		.loc 1 276 33 is_stmt 0 view .LVU99
 346 0028 1C60     		str	r4, [r3]
 277:Src/BLDC_controller.c **** 
 278:Src/BLDC_controller.c ****   /* Sum: '<S56>/Sum2' incorporates:
 279:Src/BLDC_controller.c ****    *  UnitDelay: '<S56>/UnitDelay1'
 280:Src/BLDC_controller.c ****    */
 281:Src/BLDC_controller.c ****   rtb_Sum3_g = rtu_u[1] - (localDW->UnitDelay1_DSTATE[1] >> 16);
 347              		.loc 1 281 3 is_stmt 1 view .LVU100
 348              		.loc 1 281 21 is_stmt 0 view .LVU101
 349 002a B0F90200 		ldrsh	r0, [r0, #2]
 350              	.LVL34:
 351              		.loc 1 281 54 view .LVU102
ARM GAS  /tmp/cccGHnrd.s 			page 12


 352 002e 5C68     		ldr	r4, [r3, #4]
 353              	.LVL35:
 354              		.loc 1 281 14 view .LVU103
 355 0030 A0EB2440 		sub	r0, r0, r4, asr #16
 356              	.LVL36:
 282:Src/BLDC_controller.c ****   if (rtb_Sum3_g > 32767) {
 357              		.loc 1 282 3 is_stmt 1 view .LVU104
 358              		.loc 1 282 6 is_stmt 0 view .LVU105
 359 0034 B0F5004F 		cmp	r0, #32768
 360 0038 04DA     		bge	.L26
 283:Src/BLDC_controller.c ****     rtb_Sum3_g = 32767;
 284:Src/BLDC_controller.c ****   } else {
 285:Src/BLDC_controller.c ****     if (rtb_Sum3_g < -32768) {
 361              		.loc 1 285 5 is_stmt 1 view .LVU106
 362              		.loc 1 285 8 is_stmt 0 view .LVU107
 363 003a 10F5004F 		cmn	r0, #32768
 364 003e 03DA     		bge	.L23
 286:Src/BLDC_controller.c ****       rtb_Sum3_g = -32768;
 365              		.loc 1 286 18 view .LVU108
 366 0040 0548     		ldr	r0, .L29
 367              	.LVL37:
 368              		.loc 1 286 18 view .LVU109
 369 0042 01E0     		b	.L23
 370              	.LVL38:
 371              	.L26:
 283:Src/BLDC_controller.c ****     rtb_Sum3_g = 32767;
 372              		.loc 1 283 16 view .LVU110
 373 0044 47F6FF70 		movw	r0, #32767
 374              	.LVL39:
 375              	.L23:
 287:Src/BLDC_controller.c ****     }
 288:Src/BLDC_controller.c ****   }
 289:Src/BLDC_controller.c **** 
 290:Src/BLDC_controller.c ****   /* Sum: '<S56>/Sum3' incorporates:
 291:Src/BLDC_controller.c ****    *  Product: '<S56>/Divide3'
 292:Src/BLDC_controller.c ****    *  Sum: '<S56>/Sum2'
 293:Src/BLDC_controller.c ****    *  UnitDelay: '<S56>/UnitDelay1'
 294:Src/BLDC_controller.c ****    */
 295:Src/BLDC_controller.c ****   rtb_Sum3_g = rtu_coef * rtb_Sum3_g + localDW->UnitDelay1_DSTATE[1];
 376              		.loc 1 295 3 is_stmt 1 view .LVU111
 377              		.loc 1 295 14 is_stmt 0 view .LVU112
 378 0048 00FB0141 		mla	r1, r0, r1, r4
 379              	.LVL40:
 296:Src/BLDC_controller.c **** 
 297:Src/BLDC_controller.c ****   /* DataTypeConversion: '<S56>/Data Type Conversion' */
 298:Src/BLDC_controller.c ****   rty_y[1] = (int16_T)(rtb_Sum3_g >> 16);
 380              		.loc 1 298 3 is_stmt 1 view .LVU113
 381              		.loc 1 298 14 is_stmt 0 view .LVU114
 382 004c 0814     		asrs	r0, r1, #16
 383              		.loc 1 298 12 view .LVU115
 384 004e 5080     		strh	r0, [r2, #2]	@ movhi
 299:Src/BLDC_controller.c **** 
 300:Src/BLDC_controller.c ****   /* Update for UnitDelay: '<S56>/UnitDelay1' */
 301:Src/BLDC_controller.c ****   localDW->UnitDelay1_DSTATE[1] = rtb_Sum3_g;
 385              		.loc 1 301 3 is_stmt 1 view .LVU116
 386              		.loc 1 301 33 is_stmt 0 view .LVU117
 387 0050 5960     		str	r1, [r3, #4]
ARM GAS  /tmp/cccGHnrd.s 			page 13


 302:Src/BLDC_controller.c **** }
 388              		.loc 1 302 1 view .LVU118
 389 0052 30BC     		pop	{r4, r5}
 390              	.LCFI1:
 391              		.cfi_restore 5
 392              		.cfi_restore 4
 393              		.cfi_def_cfa_offset 0
 394 0054 7047     		bx	lr
 395              	.L30:
 396 0056 00BF     		.align	2
 397              	.L29:
 398 0058 0080FFFF 		.word	-32768
 399              		.cfi_endproc
 400              	.LFE6:
 402              		.section	.text.Counter_b_Init,"ax",%progbits
 403              		.align	1
 404              		.global	Counter_b_Init
 405              		.syntax unified
 406              		.thumb
 407              		.thumb_func
 409              	Counter_b_Init:
 410              	.LVL41:
 411              	.LFB7:
 303:Src/BLDC_controller.c **** 
 304:Src/BLDC_controller.c **** /*
 305:Src/BLDC_controller.c ****  * System initialize for atomic system:
 306:Src/BLDC_controller.c ****  *    '<S25>/Counter'
 307:Src/BLDC_controller.c ****  *    '<S24>/Counter'
 308:Src/BLDC_controller.c ****  */
 309:Src/BLDC_controller.c **** void Counter_b_Init(DW_Counter_b *localDW, uint16_T rtp_z_cntInit)
 310:Src/BLDC_controller.c **** {
 412              		.loc 1 310 1 is_stmt 1 view -0
 413              		.cfi_startproc
 414              		@ args = 0, pretend = 0, frame = 0
 415              		@ frame_needed = 0, uses_anonymous_args = 0
 416              		@ link register save eliminated.
 311:Src/BLDC_controller.c ****   /* InitializeConditions for UnitDelay: '<S30>/UnitDelay' */
 312:Src/BLDC_controller.c ****   localDW->UnitDelay_DSTATE = rtp_z_cntInit;
 417              		.loc 1 312 3 view .LVU120
 418              		.loc 1 312 29 is_stmt 0 view .LVU121
 419 0000 0180     		strh	r1, [r0]	@ movhi
 313:Src/BLDC_controller.c **** }
 420              		.loc 1 313 1 view .LVU122
 421 0002 7047     		bx	lr
 422              		.cfi_endproc
 423              	.LFE7:
 425              		.section	.text.Counter_n,"ax",%progbits
 426              		.align	1
 427              		.global	Counter_n
 428              		.syntax unified
 429              		.thumb
 430              		.thumb_func
 432              	Counter_n:
 433              	.LVL42:
 434              	.LFB8:
 314:Src/BLDC_controller.c **** 
 315:Src/BLDC_controller.c **** /*
ARM GAS  /tmp/cccGHnrd.s 			page 14


 316:Src/BLDC_controller.c ****  * Output and update for atomic system:
 317:Src/BLDC_controller.c ****  *    '<S25>/Counter'
 318:Src/BLDC_controller.c ****  *    '<S24>/Counter'
 319:Src/BLDC_controller.c ****  */
 320:Src/BLDC_controller.c **** void Counter_n(uint16_T rtu_inc, uint16_T rtu_max, boolean_T rtu_rst, uint16_T
 321:Src/BLDC_controller.c ****                *rty_cnt, DW_Counter_b *localDW)
 322:Src/BLDC_controller.c **** {
 435              		.loc 1 322 1 is_stmt 1 view -0
 436              		.cfi_startproc
 437              		@ args = 4, pretend = 0, frame = 0
 438              		@ frame_needed = 0, uses_anonymous_args = 0
 439              		@ link register save eliminated.
 440              		.loc 1 322 1 is_stmt 0 view .LVU124
 441 0000 10B4     		push	{r4}
 442              	.LCFI2:
 443              		.cfi_def_cfa_offset 4
 444              		.cfi_offset 4, -4
 445 0002 019C     		ldr	r4, [sp, #4]
 323:Src/BLDC_controller.c ****   uint16_T rtu_rst_0;
 446              		.loc 1 323 3 is_stmt 1 view .LVU125
 324:Src/BLDC_controller.c **** 
 325:Src/BLDC_controller.c ****   /* Switch: '<S30>/Switch1' incorporates:
 326:Src/BLDC_controller.c ****    *  Constant: '<S30>/Constant23'
 327:Src/BLDC_controller.c ****    *  UnitDelay: '<S30>/UnitDelay'
 328:Src/BLDC_controller.c ****    */
 329:Src/BLDC_controller.c ****   if (rtu_rst) {
 447              		.loc 1 329 3 view .LVU126
 448              		.loc 1 329 6 is_stmt 0 view .LVU127
 449 0004 42B9     		cbnz	r2, .L36
 330:Src/BLDC_controller.c ****     rtu_rst_0 = 0U;
 331:Src/BLDC_controller.c ****   } else {
 332:Src/BLDC_controller.c ****     rtu_rst_0 = localDW->UnitDelay_DSTATE;
 450              		.loc 1 332 5 is_stmt 1 view .LVU128
 451              		.loc 1 332 15 is_stmt 0 view .LVU129
 452 0006 2288     		ldrh	r2, [r4]
 453              	.LVL43:
 454              	.L33:
 333:Src/BLDC_controller.c ****   }
 334:Src/BLDC_controller.c **** 
 335:Src/BLDC_controller.c ****   /* End of Switch: '<S30>/Switch1' */
 336:Src/BLDC_controller.c **** 
 337:Src/BLDC_controller.c ****   /* Sum: '<S29>/Sum1' */
 338:Src/BLDC_controller.c ****   *rty_cnt = (uint16_T)((uint32_T)rtu_inc + rtu_rst_0);
 455              		.loc 1 338 3 is_stmt 1 view .LVU130
 456              		.loc 1 338 14 is_stmt 0 view .LVU131
 457 0008 1044     		add	r0, r0, r2
 458              	.LVL44:
 459              		.loc 1 338 14 view .LVU132
 460 000a 80B2     		uxth	r0, r0
 461              		.loc 1 338 12 view .LVU133
 462 000c 1880     		strh	r0, [r3]	@ movhi
 339:Src/BLDC_controller.c **** 
 340:Src/BLDC_controller.c ****   /* MinMax: '<S29>/MinMax' */
 341:Src/BLDC_controller.c ****   if (*rty_cnt < rtu_max) {
 463              		.loc 1 341 3 is_stmt 1 view .LVU134
 464              		.loc 1 341 6 is_stmt 0 view .LVU135
 465 000e 8842     		cmp	r0, r1
ARM GAS  /tmp/cccGHnrd.s 			page 15


 466 0010 04D2     		bcs	.L34
 342:Src/BLDC_controller.c ****     /* Update for UnitDelay: '<S30>/UnitDelay' */
 343:Src/BLDC_controller.c ****     localDW->UnitDelay_DSTATE = *rty_cnt;
 467              		.loc 1 343 5 is_stmt 1 view .LVU136
 468              		.loc 1 343 31 is_stmt 0 view .LVU137
 469 0012 2080     		strh	r0, [r4]	@ movhi
 470              	.L32:
 344:Src/BLDC_controller.c ****   } else {
 345:Src/BLDC_controller.c ****     /* Update for UnitDelay: '<S30>/UnitDelay' */
 346:Src/BLDC_controller.c ****     localDW->UnitDelay_DSTATE = rtu_max;
 347:Src/BLDC_controller.c ****   }
 348:Src/BLDC_controller.c **** 
 349:Src/BLDC_controller.c ****   /* End of MinMax: '<S29>/MinMax' */
 350:Src/BLDC_controller.c **** }
 471              		.loc 1 350 1 view .LVU138
 472 0014 10BC     		pop	{r4}
 473              	.LCFI3:
 474              		.cfi_remember_state
 475              		.cfi_restore 4
 476              		.cfi_def_cfa_offset 0
 477              	.LVL45:
 478              		.loc 1 350 1 view .LVU139
 479 0016 7047     		bx	lr
 480              	.LVL46:
 481              	.L36:
 482              	.LCFI4:
 483              		.cfi_restore_state
 330:Src/BLDC_controller.c ****   } else {
 484              		.loc 1 330 15 view .LVU140
 485 0018 0022     		movs	r2, #0
 486              	.LVL47:
 330:Src/BLDC_controller.c ****   } else {
 487              		.loc 1 330 15 view .LVU141
 488 001a F5E7     		b	.L33
 489              	.LVL48:
 490              	.L34:
 346:Src/BLDC_controller.c ****   }
 491              		.loc 1 346 5 is_stmt 1 view .LVU142
 346:Src/BLDC_controller.c ****   }
 492              		.loc 1 346 31 is_stmt 0 view .LVU143
 493 001c 2180     		strh	r1, [r4]	@ movhi
 494              		.loc 1 350 1 view .LVU144
 495 001e F9E7     		b	.L32
 496              		.cfi_endproc
 497              	.LFE8:
 499              		.section	.text.either_edge,"ax",%progbits
 500              		.align	1
 501              		.global	either_edge
 502              		.syntax unified
 503              		.thumb
 504              		.thumb_func
 506              	either_edge:
 507              	.LVL49:
 508              	.LFB9:
 351:Src/BLDC_controller.c **** 
 352:Src/BLDC_controller.c **** /*
 353:Src/BLDC_controller.c ****  * Output and update for atomic system:
ARM GAS  /tmp/cccGHnrd.s 			page 16


 354:Src/BLDC_controller.c ****  *    '<S21>/either_edge'
 355:Src/BLDC_controller.c ****  *    '<S20>/either_edge'
 356:Src/BLDC_controller.c ****  */
 357:Src/BLDC_controller.c **** void either_edge(boolean_T rtu_u, boolean_T *rty_y, DW_either_edge *localDW)
 358:Src/BLDC_controller.c **** {
 509              		.loc 1 358 1 is_stmt 1 view -0
 510              		.cfi_startproc
 511              		@ args = 0, pretend = 0, frame = 0
 512              		@ frame_needed = 0, uses_anonymous_args = 0
 513              		@ link register save eliminated.
 359:Src/BLDC_controller.c ****   /* RelationalOperator: '<S26>/Relational Operator' incorporates:
 360:Src/BLDC_controller.c ****    *  UnitDelay: '<S26>/UnitDelay'
 361:Src/BLDC_controller.c ****    */
 362:Src/BLDC_controller.c ****   *rty_y = (rtu_u != localDW->UnitDelay_DSTATE);
 514              		.loc 1 362 3 view .LVU146
 515              		.loc 1 362 29 is_stmt 0 view .LVU147
 516 0000 1378     		ldrb	r3, [r2]	@ zero_extendqisi2
 517              		.loc 1 362 19 view .LVU148
 518 0002 1B1A     		subs	r3, r3, r0
 519 0004 18BF     		it	ne
 520 0006 0123     		movne	r3, #1
 521              		.loc 1 362 10 view .LVU149
 522 0008 0B70     		strb	r3, [r1]
 363:Src/BLDC_controller.c **** 
 364:Src/BLDC_controller.c ****   /* Update for UnitDelay: '<S26>/UnitDelay' */
 365:Src/BLDC_controller.c ****   localDW->UnitDelay_DSTATE = rtu_u;
 523              		.loc 1 365 3 is_stmt 1 view .LVU150
 524              		.loc 1 365 29 is_stmt 0 view .LVU151
 525 000a 1070     		strb	r0, [r2]
 366:Src/BLDC_controller.c **** }
 526              		.loc 1 366 1 view .LVU152
 527 000c 7047     		bx	lr
 528              		.cfi_endproc
 529              	.LFE9:
 531              		.section	.text.Debounce_Filter_Init,"ax",%progbits
 532              		.align	1
 533              		.global	Debounce_Filter_Init
 534              		.syntax unified
 535              		.thumb
 536              		.thumb_func
 538              	Debounce_Filter_Init:
 539              	.LVL50:
 540              	.LFB10:
 367:Src/BLDC_controller.c **** 
 368:Src/BLDC_controller.c **** /* System initialize for atomic system: '<S20>/Debounce_Filter' */
 369:Src/BLDC_controller.c **** void Debounce_Filter_Init(DW_Debounce_Filter *localDW)
 370:Src/BLDC_controller.c **** {
 541              		.loc 1 370 1 is_stmt 1 view -0
 542              		.cfi_startproc
 543              		@ args = 0, pretend = 0, frame = 0
 544              		@ frame_needed = 0, uses_anonymous_args = 0
 545              		.loc 1 370 1 is_stmt 0 view .LVU154
 546 0000 10B5     		push	{r4, lr}
 547              	.LCFI5:
 548              		.cfi_def_cfa_offset 8
 549              		.cfi_offset 4, -8
 550              		.cfi_offset 14, -4
ARM GAS  /tmp/cccGHnrd.s 			page 17


 551 0002 0446     		mov	r4, r0
 371:Src/BLDC_controller.c ****   /* SystemInitialize for IfAction SubSystem: '<S21>/Qualification' */
 372:Src/BLDC_controller.c **** 
 373:Src/BLDC_controller.c ****   /* SystemInitialize for Atomic SubSystem: '<S25>/Counter' */
 374:Src/BLDC_controller.c ****   Counter_b_Init(&localDW->Counter_n1, 0U);
 552              		.loc 1 374 3 is_stmt 1 view .LVU155
 553 0004 0021     		movs	r1, #0
 554 0006 0430     		adds	r0, r0, #4
 555              	.LVL51:
 556              		.loc 1 374 3 is_stmt 0 view .LVU156
 557 0008 FFF7FEFF 		bl	Counter_b_Init
 558              	.LVL52:
 375:Src/BLDC_controller.c **** 
 376:Src/BLDC_controller.c ****   /* End of SystemInitialize for SubSystem: '<S25>/Counter' */
 377:Src/BLDC_controller.c **** 
 378:Src/BLDC_controller.c ****   /* End of SystemInitialize for SubSystem: '<S21>/Qualification' */
 379:Src/BLDC_controller.c **** 
 380:Src/BLDC_controller.c ****   /* SystemInitialize for IfAction SubSystem: '<S21>/Dequalification' */
 381:Src/BLDC_controller.c **** 
 382:Src/BLDC_controller.c ****   /* SystemInitialize for Atomic SubSystem: '<S24>/Counter' */
 383:Src/BLDC_controller.c ****   Counter_b_Init(&localDW->Counter_e, 0U);
 559              		.loc 1 383 3 is_stmt 1 view .LVU157
 560 000c 0021     		movs	r1, #0
 561 000e A01C     		adds	r0, r4, #2
 562 0010 FFF7FEFF 		bl	Counter_b_Init
 563              	.LVL53:
 384:Src/BLDC_controller.c **** 
 385:Src/BLDC_controller.c ****   /* End of SystemInitialize for SubSystem: '<S24>/Counter' */
 386:Src/BLDC_controller.c **** 
 387:Src/BLDC_controller.c ****   /* End of SystemInitialize for SubSystem: '<S21>/Dequalification' */
 388:Src/BLDC_controller.c **** }
 564              		.loc 1 388 1 is_stmt 0 view .LVU158
 565 0014 10BD     		pop	{r4, pc}
 566              		.loc 1 388 1 view .LVU159
 567              		.cfi_endproc
 568              	.LFE10:
 570              		.section	.text.Debounce_Filter,"ax",%progbits
 571              		.align	1
 572              		.global	Debounce_Filter
 573              		.syntax unified
 574              		.thumb
 575              		.thumb_func
 577              	Debounce_Filter:
 578              	.LVL54:
 579              	.LFB11:
 389:Src/BLDC_controller.c **** 
 390:Src/BLDC_controller.c **** /* Output and update for atomic system: '<S20>/Debounce_Filter' */
 391:Src/BLDC_controller.c **** void Debounce_Filter(boolean_T rtu_u, uint16_T rtu_tAcv, uint16_T rtu_tDeacv,
 392:Src/BLDC_controller.c ****                      boolean_T *rty_y, DW_Debounce_Filter *localDW)
 393:Src/BLDC_controller.c **** {
 580              		.loc 1 393 1 is_stmt 1 view -0
 581              		.cfi_startproc
 582              		@ args = 4, pretend = 0, frame = 8
 583              		@ frame_needed = 0, uses_anonymous_args = 0
 584              		.loc 1 393 1 is_stmt 0 view .LVU161
 585 0000 2DE9F041 		push	{r4, r5, r6, r7, r8, lr}
 586              	.LCFI6:
ARM GAS  /tmp/cccGHnrd.s 			page 18


 587              		.cfi_def_cfa_offset 24
 588              		.cfi_offset 4, -24
 589              		.cfi_offset 5, -20
 590              		.cfi_offset 6, -16
 591              		.cfi_offset 7, -12
 592              		.cfi_offset 8, -8
 593              		.cfi_offset 14, -4
 594 0004 84B0     		sub	sp, sp, #16
 595              	.LCFI7:
 596              		.cfi_def_cfa_offset 40
 597 0006 0646     		mov	r6, r0
 598 0008 8846     		mov	r8, r1
 599 000a 1746     		mov	r7, r2
 600 000c 1D46     		mov	r5, r3
 601 000e 0A9C     		ldr	r4, [sp, #40]
 394:Src/BLDC_controller.c ****   uint16_T rtb_Sum1_n;
 602              		.loc 1 394 3 is_stmt 1 view .LVU162
 395:Src/BLDC_controller.c ****   boolean_T rtb_RelationalOperator_g;
 603              		.loc 1 395 3 view .LVU163
 396:Src/BLDC_controller.c **** 
 397:Src/BLDC_controller.c ****   /* Outputs for Atomic SubSystem: '<S21>/either_edge' */
 398:Src/BLDC_controller.c ****   either_edge(rtu_u, &rtb_RelationalOperator_g, &localDW->either_edge_p);
 604              		.loc 1 398 3 view .LVU164
 605 0010 2246     		mov	r2, r4
 606              	.LVL55:
 607              		.loc 1 398 3 is_stmt 0 view .LVU165
 608 0012 0DF10D01 		add	r1, sp, #13
 609              	.LVL56:
 610              		.loc 1 398 3 view .LVU166
 611 0016 FFF7FEFF 		bl	either_edge
 612              	.LVL57:
 399:Src/BLDC_controller.c **** 
 400:Src/BLDC_controller.c ****   /* End of Outputs for SubSystem: '<S21>/either_edge' */
 401:Src/BLDC_controller.c **** 
 402:Src/BLDC_controller.c ****   /* If: '<S21>/If2' incorporates:
 403:Src/BLDC_controller.c ****    *  Constant: '<S24>/Constant6'
 404:Src/BLDC_controller.c ****    *  Constant: '<S25>/Constant6'
 405:Src/BLDC_controller.c ****    *  Inport: '<S23>/yPrev'
 406:Src/BLDC_controller.c ****    *  Logic: '<S21>/Logical Operator1'
 407:Src/BLDC_controller.c ****    *  Logic: '<S21>/Logical Operator2'
 408:Src/BLDC_controller.c ****    *  Logic: '<S21>/Logical Operator3'
 409:Src/BLDC_controller.c ****    *  Logic: '<S21>/Logical Operator4'
 410:Src/BLDC_controller.c ****    *  UnitDelay: '<S21>/UnitDelay'
 411:Src/BLDC_controller.c ****    */
 412:Src/BLDC_controller.c ****   if (rtu_u && (!localDW->UnitDelay_DSTATE)) {
 613              		.loc 1 412 3 is_stmt 1 view .LVU167
 614              		.loc 1 412 6 is_stmt 0 view .LVU168
 615 001a FEB1     		cbz	r6, .L42
 616              		.loc 1 412 25 discriminator 1 view .LVU169
 617 001c A379     		ldrb	r3, [r4, #6]	@ zero_extendqisi2
 618              		.loc 1 412 13 discriminator 1 view .LVU170
 619 001e 33B1     		cbz	r3, .L52
 620              	.L43:
 413:Src/BLDC_controller.c ****     /* Outputs for IfAction SubSystem: '<S21>/Qualification' incorporates:
 414:Src/BLDC_controller.c ****      *  ActionPort: '<S25>/Action Port'
 415:Src/BLDC_controller.c ****      */
 416:Src/BLDC_controller.c **** 
ARM GAS  /tmp/cccGHnrd.s 			page 19


 417:Src/BLDC_controller.c ****     /* Outputs for Atomic SubSystem: '<S25>/Counter' */
 418:Src/BLDC_controller.c ****     Counter_n(1U, rtu_tAcv, rtb_RelationalOperator_g, &rtb_Sum1_n,
 419:Src/BLDC_controller.c ****               &localDW->Counter_n1);
 420:Src/BLDC_controller.c **** 
 421:Src/BLDC_controller.c ****     /* End of Outputs for SubSystem: '<S25>/Counter' */
 422:Src/BLDC_controller.c **** 
 423:Src/BLDC_controller.c ****     /* Switch: '<S25>/Switch2' incorporates:
 424:Src/BLDC_controller.c ****      *  Constant: '<S25>/Constant6'
 425:Src/BLDC_controller.c ****      *  RelationalOperator: '<S25>/Relational Operator2'
 426:Src/BLDC_controller.c ****      */
 427:Src/BLDC_controller.c ****     *rty_y = ((rtb_Sum1_n > rtu_tAcv) || localDW->UnitDelay_DSTATE);
 428:Src/BLDC_controller.c **** 
 429:Src/BLDC_controller.c ****     /* End of Outputs for SubSystem: '<S21>/Qualification' */
 430:Src/BLDC_controller.c ****   } else if ((!rtu_u) && localDW->UnitDelay_DSTATE) {
 431:Src/BLDC_controller.c ****     /* Outputs for IfAction SubSystem: '<S21>/Dequalification' incorporates:
 432:Src/BLDC_controller.c ****      *  ActionPort: '<S24>/Action Port'
 433:Src/BLDC_controller.c ****      */
 434:Src/BLDC_controller.c **** 
 435:Src/BLDC_controller.c ****     /* Outputs for Atomic SubSystem: '<S24>/Counter' */
 436:Src/BLDC_controller.c ****     Counter_n(1U, rtu_tDeacv, rtb_RelationalOperator_g, &rtb_Sum1_n,
 437:Src/BLDC_controller.c ****               &localDW->Counter_e);
 438:Src/BLDC_controller.c **** 
 439:Src/BLDC_controller.c ****     /* End of Outputs for SubSystem: '<S24>/Counter' */
 440:Src/BLDC_controller.c **** 
 441:Src/BLDC_controller.c ****     /* Switch: '<S24>/Switch2' incorporates:
 442:Src/BLDC_controller.c ****      *  Constant: '<S24>/Constant6'
 443:Src/BLDC_controller.c ****      *  RelationalOperator: '<S24>/Relational Operator2'
 444:Src/BLDC_controller.c ****      */
 445:Src/BLDC_controller.c ****     *rty_y = ((!(rtb_Sum1_n > rtu_tDeacv)) && localDW->UnitDelay_DSTATE);
 446:Src/BLDC_controller.c **** 
 447:Src/BLDC_controller.c ****     /* End of Outputs for SubSystem: '<S21>/Dequalification' */
 448:Src/BLDC_controller.c ****   } else {
 449:Src/BLDC_controller.c ****     /* Outputs for IfAction SubSystem: '<S21>/Default' incorporates:
 450:Src/BLDC_controller.c ****      *  ActionPort: '<S23>/Action Port'
 451:Src/BLDC_controller.c ****      */
 452:Src/BLDC_controller.c ****     *rty_y = localDW->UnitDelay_DSTATE;
 621              		.loc 1 452 5 is_stmt 1 view .LVU171
 622              		.loc 1 452 21 is_stmt 0 view .LVU172
 623 0020 A379     		ldrb	r3, [r4, #6]	@ zero_extendqisi2
 624              		.loc 1 452 12 view .LVU173
 625 0022 2B70     		strb	r3, [r5]
 626              	.L45:
 453:Src/BLDC_controller.c **** 
 454:Src/BLDC_controller.c ****     /* End of Outputs for SubSystem: '<S21>/Default' */
 455:Src/BLDC_controller.c ****   }
 456:Src/BLDC_controller.c **** 
 457:Src/BLDC_controller.c ****   /* End of If: '<S21>/If2' */
 458:Src/BLDC_controller.c **** 
 459:Src/BLDC_controller.c ****   /* Update for UnitDelay: '<S21>/UnitDelay' */
 460:Src/BLDC_controller.c ****   localDW->UnitDelay_DSTATE = *rty_y;
 627              		.loc 1 460 3 is_stmt 1 view .LVU174
 628              		.loc 1 460 31 is_stmt 0 view .LVU175
 629 0024 2B78     		ldrb	r3, [r5]	@ zero_extendqisi2
 630              		.loc 1 460 29 view .LVU176
 631 0026 A371     		strb	r3, [r4, #6]
 461:Src/BLDC_controller.c **** }
 632              		.loc 1 461 1 view .LVU177
ARM GAS  /tmp/cccGHnrd.s 			page 20


 633 0028 04B0     		add	sp, sp, #16
 634              	.LCFI8:
 635              		.cfi_remember_state
 636              		.cfi_def_cfa_offset 24
 637              		@ sp needed
 638 002a BDE8F081 		pop	{r4, r5, r6, r7, r8, pc}
 639              	.LVL58:
 640              	.L52:
 641              	.LCFI9:
 642              		.cfi_restore_state
 418:Src/BLDC_controller.c ****               &localDW->Counter_n1);
 643              		.loc 1 418 5 is_stmt 1 view .LVU178
 644 002e 231D     		adds	r3, r4, #4
 645 0030 0093     		str	r3, [sp]
 646 0032 0DF10E03 		add	r3, sp, #14
 647 0036 9DF80D20 		ldrb	r2, [sp, #13]	@ zero_extendqisi2
 648 003a 4146     		mov	r1, r8
 649 003c 0120     		movs	r0, #1
 650 003e FFF7FEFF 		bl	Counter_n
 651              	.LVL59:
 427:Src/BLDC_controller.c **** 
 652              		.loc 1 427 5 view .LVU179
 427:Src/BLDC_controller.c **** 
 653              		.loc 1 427 27 is_stmt 0 view .LVU180
 654 0042 BDF80E30 		ldrh	r3, [sp, #14]
 427:Src/BLDC_controller.c **** 
 655              		.loc 1 427 39 view .LVU181
 656 0046 4345     		cmp	r3, r8
 657 0048 03D8     		bhi	.L47
 427:Src/BLDC_controller.c **** 
 658              		.loc 1 427 49 discriminator 2 view .LVU182
 659 004a A379     		ldrb	r3, [r4, #6]	@ zero_extendqisi2
 427:Src/BLDC_controller.c **** 
 660              		.loc 1 427 39 discriminator 2 view .LVU183
 661 004c 23B1     		cbz	r3, .L48
 427:Src/BLDC_controller.c **** 
 662              		.loc 1 427 39 discriminator 3 view .LVU184
 663 004e 0123     		movs	r3, #1
 664 0050 00E0     		b	.L44
 665              	.L47:
 666 0052 0123     		movs	r3, #1
 667              	.L44:
 427:Src/BLDC_controller.c **** 
 668              		.loc 1 427 12 discriminator 6 view .LVU185
 669 0054 2B70     		strb	r3, [r5]
 427:Src/BLDC_controller.c **** 
 670              		.loc 1 427 12 view .LVU186
 671 0056 E5E7     		b	.L45
 672              	.L48:
 427:Src/BLDC_controller.c **** 
 673              		.loc 1 427 39 discriminator 4 view .LVU187
 674 0058 0023     		movs	r3, #0
 675 005a FBE7     		b	.L44
 676              	.L42:
 430:Src/BLDC_controller.c ****     /* Outputs for IfAction SubSystem: '<S21>/Dequalification' incorporates:
 677              		.loc 1 430 33 discriminator 1 view .LVU188
 678 005c A379     		ldrb	r3, [r4, #6]	@ zero_extendqisi2
ARM GAS  /tmp/cccGHnrd.s 			page 21


 430:Src/BLDC_controller.c ****     /* Outputs for IfAction SubSystem: '<S21>/Dequalification' incorporates:
 679              		.loc 1 430 23 discriminator 1 view .LVU189
 680 005e 002B     		cmp	r3, #0
 681 0060 DED0     		beq	.L43
 436:Src/BLDC_controller.c ****               &localDW->Counter_e);
 682              		.loc 1 436 5 is_stmt 1 view .LVU190
 683 0062 A31C     		adds	r3, r4, #2
 684 0064 0093     		str	r3, [sp]
 685 0066 0DF10E03 		add	r3, sp, #14
 686 006a 9DF80D20 		ldrb	r2, [sp, #13]	@ zero_extendqisi2
 687 006e 3946     		mov	r1, r7
 688 0070 0120     		movs	r0, #1
 689 0072 FFF7FEFF 		bl	Counter_n
 690              	.LVL60:
 445:Src/BLDC_controller.c **** 
 691              		.loc 1 445 5 view .LVU191
 445:Src/BLDC_controller.c **** 
 692              		.loc 1 445 16 is_stmt 0 view .LVU192
 693 0076 BDF80E30 		ldrh	r3, [sp, #14]
 445:Src/BLDC_controller.c **** 
 694              		.loc 1 445 44 view .LVU193
 695 007a BB42     		cmp	r3, r7
 696 007c 03D8     		bhi	.L49
 445:Src/BLDC_controller.c **** 
 697              		.loc 1 445 54 discriminator 1 view .LVU194
 698 007e A379     		ldrb	r3, [r4, #6]	@ zero_extendqisi2
 445:Src/BLDC_controller.c **** 
 699              		.loc 1 445 44 discriminator 1 view .LVU195
 700 0080 13B1     		cbz	r3, .L46
 445:Src/BLDC_controller.c **** 
 701              		.loc 1 445 44 discriminator 3 view .LVU196
 702 0082 0123     		movs	r3, #1
 703 0084 00E0     		b	.L46
 704              	.L49:
 445:Src/BLDC_controller.c **** 
 705              		.loc 1 445 44 discriminator 4 view .LVU197
 706 0086 0023     		movs	r3, #0
 707              	.L46:
 445:Src/BLDC_controller.c **** 
 708              		.loc 1 445 12 discriminator 6 view .LVU198
 709 0088 2B70     		strb	r3, [r5]
 445:Src/BLDC_controller.c **** 
 710              		.loc 1 445 12 view .LVU199
 711 008a CBE7     		b	.L45
 712              		.cfi_endproc
 713              	.LFE11:
 715              		.section	.text.I_backCalc_fixdt_Init,"ax",%progbits
 716              		.align	1
 717              		.global	I_backCalc_fixdt_Init
 718              		.syntax unified
 719              		.thumb
 720              		.thumb_func
 722              	I_backCalc_fixdt_Init:
 723              	.LVL61:
 724              	.LFB12:
 462:Src/BLDC_controller.c **** 
 463:Src/BLDC_controller.c **** /*
ARM GAS  /tmp/cccGHnrd.s 			page 22


 464:Src/BLDC_controller.c ****  * System initialize for atomic system:
 465:Src/BLDC_controller.c ****  *    '<S83>/I_backCalc_fixdt'
 466:Src/BLDC_controller.c ****  *    '<S83>/I_backCalc_fixdt1'
 467:Src/BLDC_controller.c ****  *    '<S82>/I_backCalc_fixdt'
 468:Src/BLDC_controller.c ****  */
 469:Src/BLDC_controller.c **** void I_backCalc_fixdt_Init(DW_I_backCalc_fixdt *localDW, int32_T rtp_yInit)
 470:Src/BLDC_controller.c **** {
 725              		.loc 1 470 1 is_stmt 1 view -0
 726              		.cfi_startproc
 727              		@ args = 0, pretend = 0, frame = 0
 728              		@ frame_needed = 0, uses_anonymous_args = 0
 729              		@ link register save eliminated.
 471:Src/BLDC_controller.c ****   /* InitializeConditions for UnitDelay: '<S90>/UnitDelay' */
 472:Src/BLDC_controller.c ****   localDW->UnitDelay_DSTATE_m = rtp_yInit;
 730              		.loc 1 472 3 view .LVU201
 731              		.loc 1 472 31 is_stmt 0 view .LVU202
 732 0000 4160     		str	r1, [r0, #4]
 473:Src/BLDC_controller.c **** }
 733              		.loc 1 473 1 view .LVU203
 734 0002 7047     		bx	lr
 735              		.cfi_endproc
 736              	.LFE12:
 738              		.section	.text.I_backCalc_fixdt_Reset,"ax",%progbits
 739              		.align	1
 740              		.global	I_backCalc_fixdt_Reset
 741              		.syntax unified
 742              		.thumb
 743              		.thumb_func
 745              	I_backCalc_fixdt_Reset:
 746              	.LVL62:
 747              	.LFB13:
 474:Src/BLDC_controller.c **** 
 475:Src/BLDC_controller.c **** /*
 476:Src/BLDC_controller.c ****  * System reset for atomic system:
 477:Src/BLDC_controller.c ****  *    '<S83>/I_backCalc_fixdt'
 478:Src/BLDC_controller.c ****  *    '<S83>/I_backCalc_fixdt1'
 479:Src/BLDC_controller.c ****  *    '<S82>/I_backCalc_fixdt'
 480:Src/BLDC_controller.c ****  */
 481:Src/BLDC_controller.c **** void I_backCalc_fixdt_Reset(DW_I_backCalc_fixdt *localDW, int32_T rtp_yInit)
 482:Src/BLDC_controller.c **** {
 748              		.loc 1 482 1 is_stmt 1 view -0
 749              		.cfi_startproc
 750              		@ args = 0, pretend = 0, frame = 0
 751              		@ frame_needed = 0, uses_anonymous_args = 0
 752              		@ link register save eliminated.
 483:Src/BLDC_controller.c ****   /* InitializeConditions for UnitDelay: '<S88>/UnitDelay' */
 484:Src/BLDC_controller.c ****   localDW->UnitDelay_DSTATE = 0;
 753              		.loc 1 484 3 view .LVU205
 754              		.loc 1 484 29 is_stmt 0 view .LVU206
 755 0000 0023     		movs	r3, #0
 756 0002 0360     		str	r3, [r0]
 485:Src/BLDC_controller.c **** 
 486:Src/BLDC_controller.c ****   /* InitializeConditions for UnitDelay: '<S90>/UnitDelay' */
 487:Src/BLDC_controller.c ****   localDW->UnitDelay_DSTATE_m = rtp_yInit;
 757              		.loc 1 487 3 is_stmt 1 view .LVU207
 758              		.loc 1 487 31 is_stmt 0 view .LVU208
 759 0004 4160     		str	r1, [r0, #4]
ARM GAS  /tmp/cccGHnrd.s 			page 23


 488:Src/BLDC_controller.c **** }
 760              		.loc 1 488 1 view .LVU209
 761 0006 7047     		bx	lr
 762              		.cfi_endproc
 763              	.LFE13:
 765              		.section	.text.I_backCalc_fixdt,"ax",%progbits
 766              		.align	1
 767              		.global	I_backCalc_fixdt
 768              		.syntax unified
 769              		.thumb
 770              		.thumb_func
 772              	I_backCalc_fixdt:
 773              	.LVL63:
 774              	.LFB14:
 489:Src/BLDC_controller.c **** 
 490:Src/BLDC_controller.c **** /*
 491:Src/BLDC_controller.c ****  * Output and update for atomic system:
 492:Src/BLDC_controller.c ****  *    '<S83>/I_backCalc_fixdt'
 493:Src/BLDC_controller.c ****  *    '<S83>/I_backCalc_fixdt1'
 494:Src/BLDC_controller.c ****  *    '<S82>/I_backCalc_fixdt'
 495:Src/BLDC_controller.c ****  */
 496:Src/BLDC_controller.c **** void I_backCalc_fixdt(int16_T rtu_err, uint16_T rtu_I, uint16_T rtu_Kb, int16_T
 497:Src/BLDC_controller.c ****                       rtu_satMax, int16_T rtu_satMin, int16_T *rty_out,
 498:Src/BLDC_controller.c ****                       DW_I_backCalc_fixdt *localDW)
 499:Src/BLDC_controller.c **** {
 775              		.loc 1 499 1 is_stmt 1 view -0
 776              		.cfi_startproc
 777              		@ args = 12, pretend = 0, frame = 0
 778              		@ frame_needed = 0, uses_anonymous_args = 0
 779              		.loc 1 499 1 is_stmt 0 view .LVU211
 780 0000 30B5     		push	{r4, r5, lr}
 781              	.LCFI10:
 782              		.cfi_def_cfa_offset 12
 783              		.cfi_offset 4, -12
 784              		.cfi_offset 5, -8
 785              		.cfi_offset 14, -4
 786 0002 BDF90CE0 		ldrsh	lr, [sp, #12]
 787 0006 049D     		ldr	r5, [sp, #16]
 788 0008 059C     		ldr	r4, [sp, #20]
 500:Src/BLDC_controller.c ****   int32_T rtb_Sum1_o;
 789              		.loc 1 500 3 is_stmt 1 view .LVU212
 501:Src/BLDC_controller.c ****   int16_T rtb_DataTypeConversion1_gf;
 790              		.loc 1 501 3 view .LVU213
 502:Src/BLDC_controller.c **** 
 503:Src/BLDC_controller.c ****   /* Sum: '<S88>/Sum2' incorporates:
 504:Src/BLDC_controller.c ****    *  Product: '<S88>/Divide2'
 505:Src/BLDC_controller.c ****    *  UnitDelay: '<S88>/UnitDelay'
 506:Src/BLDC_controller.c ****    */
 507:Src/BLDC_controller.c ****   rtb_Sum1_o = (rtu_err * rtu_I) >> 4;
 791              		.loc 1 507 3 view .LVU214
 792              		.loc 1 507 25 is_stmt 0 view .LVU215
 793 000a 01FB00F0 		mul	r0, r1, r0
 794              	.LVL64:
 508:Src/BLDC_controller.c ****   if ((rtb_Sum1_o < 0) && (localDW->UnitDelay_DSTATE < MIN_int32_T - rtb_Sum1_o))
 795              		.loc 1 508 3 is_stmt 1 view .LVU216
 796              		.loc 1 508 6 is_stmt 0 view .LVU217
 797 000e 0011     		asrs	r0, r0, #4
ARM GAS  /tmp/cccGHnrd.s 			page 24


 798              	.LVL65:
 799              		.loc 1 508 6 view .LVU218
 800 0010 0BD4     		bmi	.L65
 509:Src/BLDC_controller.c ****   {
 510:Src/BLDC_controller.c ****     rtb_Sum1_o = MIN_int32_T;
 511:Src/BLDC_controller.c ****   } else if ((rtb_Sum1_o > 0) && (localDW->UnitDelay_DSTATE > MAX_int32_T
 801              		.loc 1 511 10 is_stmt 1 view .LVU219
 802              		.loc 1 511 13 is_stmt 0 view .LVU220
 803 0012 0028     		cmp	r0, #0
 804 0014 0FDD     		ble	.L58
 512:Src/BLDC_controller.c ****               - rtb_Sum1_o)) {
 805              		.loc 1 512 15 view .LVU221
 806 0016 6FF00041 		mvn	r1, #-2147483648
 807              	.LVL66:
 808              		.loc 1 512 15 view .LVU222
 809 001a 091A     		subs	r1, r1, r0
 511:Src/BLDC_controller.c ****               - rtb_Sum1_o)) {
 810              		.loc 1 511 31 discriminator 1 view .LVU223
 811 001c D4F800C0 		ldr	ip, [r4]
 812 0020 8C45     		cmp	ip, r1
 813 0022 08DD     		ble	.L58
 513:Src/BLDC_controller.c ****     rtb_Sum1_o = MAX_int32_T;
 814              		.loc 1 513 16 view .LVU224
 815 0024 6FF00040 		mvn	r0, #-2147483648
 816              	.LVL67:
 817              		.loc 1 513 16 view .LVU225
 818 0028 07E0     		b	.L57
 819              	.LVL68:
 820              	.L65:
 508:Src/BLDC_controller.c ****   {
 821              		.loc 1 508 68 discriminator 1 view .LVU226
 822 002a C0F10041 		rsb	r1, r0, #-2147483648
 823              	.LVL69:
 508:Src/BLDC_controller.c ****   {
 824              		.loc 1 508 24 discriminator 1 view .LVU227
 825 002e D4F800C0 		ldr	ip, [r4]
 826 0032 8C45     		cmp	ip, r1
 827 0034 13DB     		blt	.L62
 828              	.L58:
 514:Src/BLDC_controller.c ****   } else {
 515:Src/BLDC_controller.c ****     rtb_Sum1_o += localDW->UnitDelay_DSTATE;
 829              		.loc 1 515 5 is_stmt 1 view .LVU228
 830              		.loc 1 515 26 is_stmt 0 view .LVU229
 831 0036 2168     		ldr	r1, [r4]
 832              		.loc 1 515 16 view .LVU230
 833 0038 0844     		add	r0, r0, r1
 834              	.LVL70:
 835              	.L57:
 516:Src/BLDC_controller.c ****   }
 517:Src/BLDC_controller.c **** 
 518:Src/BLDC_controller.c ****   /* End of Sum: '<S88>/Sum2' */
 519:Src/BLDC_controller.c **** 
 520:Src/BLDC_controller.c ****   /* Sum: '<S90>/Sum1' incorporates:
 521:Src/BLDC_controller.c ****    *  UnitDelay: '<S90>/UnitDelay'
 522:Src/BLDC_controller.c ****    */
 523:Src/BLDC_controller.c ****   rtb_Sum1_o += localDW->UnitDelay_DSTATE_m;
 836              		.loc 1 523 3 is_stmt 1 view .LVU231
ARM GAS  /tmp/cccGHnrd.s 			page 25


 837              		.loc 1 523 24 is_stmt 0 view .LVU232
 838 003a 6168     		ldr	r1, [r4, #4]
 839              		.loc 1 523 14 view .LVU233
 840 003c 0144     		add	r1, r1, r0
 841              	.LVL71:
 524:Src/BLDC_controller.c **** 
 525:Src/BLDC_controller.c ****   /* DataTypeConversion: '<S90>/Data Type Conversion1' */
 526:Src/BLDC_controller.c ****   rtb_DataTypeConversion1_gf = (int16_T)(rtb_Sum1_o >> 12);
 842              		.loc 1 526 3 is_stmt 1 view .LVU234
 843              		.loc 1 526 53 is_stmt 0 view .LVU235
 844 003e 4FEA213C 		asr	ip, r1, #12
 845              		.loc 1 526 30 view .LVU236
 846 0042 41F30F30 		sbfx	r0, r1, #12, #16
 847              	.LVL72:
 527:Src/BLDC_controller.c **** 
 528:Src/BLDC_controller.c ****   /* Switch: '<S91>/Switch2' incorporates:
 529:Src/BLDC_controller.c ****    *  RelationalOperator: '<S91>/LowerRelop1'
 530:Src/BLDC_controller.c ****    *  RelationalOperator: '<S91>/UpperRelop'
 531:Src/BLDC_controller.c ****    *  Switch: '<S91>/Switch'
 532:Src/BLDC_controller.c ****    */
 533:Src/BLDC_controller.c ****   if (rtb_DataTypeConversion1_gf > rtu_satMax) {
 848              		.loc 1 533 3 is_stmt 1 view .LVU237
 849              		.loc 1 533 6 is_stmt 0 view .LVU238
 850 0046 9842     		cmp	r0, r3
 851 0048 0CDD     		ble	.L59
 534:Src/BLDC_controller.c ****     *rty_out = rtu_satMax;
 852              		.loc 1 534 5 is_stmt 1 view .LVU239
 853              		.loc 1 534 14 is_stmt 0 view .LVU240
 854 004a 2B80     		strh	r3, [r5]	@ movhi
 855              	.L60:
 535:Src/BLDC_controller.c ****   } else if (rtb_DataTypeConversion1_gf < rtu_satMin) {
 536:Src/BLDC_controller.c ****     /* Switch: '<S91>/Switch' */
 537:Src/BLDC_controller.c ****     *rty_out = rtu_satMin;
 538:Src/BLDC_controller.c ****   } else {
 539:Src/BLDC_controller.c ****     *rty_out = rtb_DataTypeConversion1_gf;
 540:Src/BLDC_controller.c ****   }
 541:Src/BLDC_controller.c **** 
 542:Src/BLDC_controller.c ****   /* End of Switch: '<S91>/Switch2' */
 543:Src/BLDC_controller.c **** 
 544:Src/BLDC_controller.c ****   /* Update for UnitDelay: '<S88>/UnitDelay' incorporates:
 545:Src/BLDC_controller.c ****    *  Product: '<S88>/Divide1'
 546:Src/BLDC_controller.c ****    *  Sum: '<S88>/Sum3'
 547:Src/BLDC_controller.c ****    */
 548:Src/BLDC_controller.c ****   localDW->UnitDelay_DSTATE = (int16_T)(*rty_out - rtb_DataTypeConversion1_gf) *
 856              		.loc 1 548 3 is_stmt 1 view .LVU241
 857              		.loc 1 548 41 is_stmt 0 view .LVU242
 858 004c 2B88     		ldrh	r3, [r5]
 859              	.LVL73:
 860              		.loc 1 548 50 view .LVU243
 861 004e A3EB0C03 		sub	r3, r3, ip
 862              		.loc 1 548 31 view .LVU244
 863 0052 1BB2     		sxth	r3, r3
 864              		.loc 1 548 80 view .LVU245
 865 0054 03FB02F2 		mul	r2, r3, r2
 866              	.LVL74:
 867              		.loc 1 548 29 view .LVU246
 868 0058 2260     		str	r2, [r4]
ARM GAS  /tmp/cccGHnrd.s 			page 26


 549:Src/BLDC_controller.c ****     rtu_Kb;
 550:Src/BLDC_controller.c **** 
 551:Src/BLDC_controller.c ****   /* Update for UnitDelay: '<S90>/UnitDelay' */
 552:Src/BLDC_controller.c ****   localDW->UnitDelay_DSTATE_m = rtb_Sum1_o;
 869              		.loc 1 552 3 is_stmt 1 view .LVU247
 870              		.loc 1 552 31 is_stmt 0 view .LVU248
 871 005a 6160     		str	r1, [r4, #4]
 553:Src/BLDC_controller.c **** }
 872              		.loc 1 553 1 view .LVU249
 873 005c 30BD     		pop	{r4, r5, pc}
 874              	.LVL75:
 875              	.L62:
 510:Src/BLDC_controller.c ****   } else if ((rtb_Sum1_o > 0) && (localDW->UnitDelay_DSTATE > MAX_int32_T
 876              		.loc 1 510 16 view .LVU250
 877 005e 4FF00040 		mov	r0, #-2147483648
 878              	.LVL76:
 510:Src/BLDC_controller.c ****   } else if ((rtb_Sum1_o > 0) && (localDW->UnitDelay_DSTATE > MAX_int32_T
 879              		.loc 1 510 16 view .LVU251
 880 0062 EAE7     		b	.L57
 881              	.LVL77:
 882              	.L59:
 535:Src/BLDC_controller.c ****     /* Switch: '<S91>/Switch' */
 883              		.loc 1 535 10 is_stmt 1 view .LVU252
 535:Src/BLDC_controller.c ****     /* Switch: '<S91>/Switch' */
 884              		.loc 1 535 13 is_stmt 0 view .LVU253
 885 0064 7045     		cmp	r0, lr
 886 0066 02DA     		bge	.L61
 537:Src/BLDC_controller.c ****   } else {
 887              		.loc 1 537 5 is_stmt 1 view .LVU254
 537:Src/BLDC_controller.c ****   } else {
 888              		.loc 1 537 14 is_stmt 0 view .LVU255
 889 0068 A5F800E0 		strh	lr, [r5]	@ movhi
 890 006c EEE7     		b	.L60
 891              	.L61:
 539:Src/BLDC_controller.c ****   }
 892              		.loc 1 539 5 is_stmt 1 view .LVU256
 539:Src/BLDC_controller.c ****   }
 893              		.loc 1 539 14 is_stmt 0 view .LVU257
 894 006e 2880     		strh	r0, [r5]	@ movhi
 895 0070 ECE7     		b	.L60
 896              		.cfi_endproc
 897              	.LFE14:
 899              		.section	.text.PI_clamp_fixdt_Init,"ax",%progbits
 900              		.align	1
 901              		.global	PI_clamp_fixdt_Init
 902              		.syntax unified
 903              		.thumb
 904              		.thumb_func
 906              	PI_clamp_fixdt_Init:
 907              	.LVL78:
 908              	.LFB15:
 554:Src/BLDC_controller.c **** 
 555:Src/BLDC_controller.c **** /* System initialize for atomic system: '<S63>/PI_clamp_fixdt' */
 556:Src/BLDC_controller.c **** void PI_clamp_fixdt_Init(DW_PI_clamp_fixdt *localDW)
 557:Src/BLDC_controller.c **** {
 909              		.loc 1 557 1 is_stmt 1 view -0
 910              		.cfi_startproc
ARM GAS  /tmp/cccGHnrd.s 			page 27


 911              		@ args = 0, pretend = 0, frame = 0
 912              		@ frame_needed = 0, uses_anonymous_args = 0
 913              		@ link register save eliminated.
 558:Src/BLDC_controller.c ****   /* InitializeConditions for Delay: '<S77>/Resettable Delay' */
 559:Src/BLDC_controller.c ****   localDW->icLoad = 1U;
 914              		.loc 1 559 3 view .LVU259
 915              		.loc 1 559 19 is_stmt 0 view .LVU260
 916 0000 0123     		movs	r3, #1
 917 0002 0371     		strb	r3, [r0, #4]
 560:Src/BLDC_controller.c **** }
 918              		.loc 1 560 1 view .LVU261
 919 0004 7047     		bx	lr
 920              		.cfi_endproc
 921              	.LFE15:
 923              		.section	.text.PI_clamp_fixdt_Reset,"ax",%progbits
 924              		.align	1
 925              		.global	PI_clamp_fixdt_Reset
 926              		.syntax unified
 927              		.thumb
 928              		.thumb_func
 930              	PI_clamp_fixdt_Reset:
 931              	.LVL79:
 932              	.LFB16:
 561:Src/BLDC_controller.c **** 
 562:Src/BLDC_controller.c **** /* System reset for atomic system: '<S63>/PI_clamp_fixdt' */
 563:Src/BLDC_controller.c **** void PI_clamp_fixdt_Reset(DW_PI_clamp_fixdt *localDW)
 564:Src/BLDC_controller.c **** {
 933              		.loc 1 564 1 is_stmt 1 view -0
 934              		.cfi_startproc
 935              		@ args = 0, pretend = 0, frame = 0
 936              		@ frame_needed = 0, uses_anonymous_args = 0
 937              		@ link register save eliminated.
 565:Src/BLDC_controller.c ****   /* InitializeConditions for UnitDelay: '<S74>/UnitDelay1' */
 566:Src/BLDC_controller.c ****   localDW->UnitDelay1_DSTATE = false;
 938              		.loc 1 566 3 view .LVU263
 939              		.loc 1 566 30 is_stmt 0 view .LVU264
 940 0000 0023     		movs	r3, #0
 941 0002 4371     		strb	r3, [r0, #5]
 567:Src/BLDC_controller.c **** 
 568:Src/BLDC_controller.c ****   /* InitializeConditions for Delay: '<S77>/Resettable Delay' */
 569:Src/BLDC_controller.c ****   localDW->icLoad = 1U;
 942              		.loc 1 569 3 is_stmt 1 view .LVU265
 943              		.loc 1 569 19 is_stmt 0 view .LVU266
 944 0004 0123     		movs	r3, #1
 945 0006 0371     		strb	r3, [r0, #4]
 570:Src/BLDC_controller.c **** }
 946              		.loc 1 570 1 view .LVU267
 947 0008 7047     		bx	lr
 948              		.cfi_endproc
 949              	.LFE16:
 951              		.section	.text.PI_clamp_fixdt,"ax",%progbits
 952              		.align	1
 953              		.global	PI_clamp_fixdt
 954              		.syntax unified
 955              		.thumb
 956              		.thumb_func
 958              	PI_clamp_fixdt:
ARM GAS  /tmp/cccGHnrd.s 			page 28


 959              	.LVL80:
 960              	.LFB17:
 571:Src/BLDC_controller.c **** 
 572:Src/BLDC_controller.c **** /* Output and update for atomic system: '<S63>/PI_clamp_fixdt' */
 573:Src/BLDC_controller.c **** void PI_clamp_fixdt(int16_T rtu_err, uint16_T rtu_P, uint16_T rtu_I, int32_T
 574:Src/BLDC_controller.c ****                     rtu_init, int16_T rtu_satMax, int16_T rtu_satMin, int32_T
 575:Src/BLDC_controller.c ****                     rtu_ext_limProt, int16_T *rty_out, DW_PI_clamp_fixdt
 576:Src/BLDC_controller.c ****                     *localDW)
 577:Src/BLDC_controller.c **** {
 961              		.loc 1 577 1 is_stmt 1 view -0
 962              		.cfi_startproc
 963              		@ args = 20, pretend = 0, frame = 0
 964              		@ frame_needed = 0, uses_anonymous_args = 0
 965              		.loc 1 577 1 is_stmt 0 view .LVU269
 966 0000 70B5     		push	{r4, r5, r6, lr}
 967              	.LCFI11:
 968              		.cfi_def_cfa_offset 16
 969              		.cfi_offset 4, -16
 970              		.cfi_offset 5, -12
 971              		.cfi_offset 6, -8
 972              		.cfi_offset 14, -4
 973 0002 BDF910E0 		ldrsh	lr, [sp, #16]
 974 0006 BDF91460 		ldrsh	r6, [sp, #20]
 975 000a 069D     		ldr	r5, [sp, #24]
 976 000c 089C     		ldr	r4, [sp, #32]
 578:Src/BLDC_controller.c ****   boolean_T rtb_LowerRelop1_c0;
 977              		.loc 1 578 3 is_stmt 1 view .LVU270
 579:Src/BLDC_controller.c ****   boolean_T rtb_UpperRelop_f;
 978              		.loc 1 579 3 view .LVU271
 580:Src/BLDC_controller.c ****   int32_T rtb_Sum1_p0;
 979              		.loc 1 580 3 view .LVU272
 581:Src/BLDC_controller.c ****   int32_T q0;
 980              		.loc 1 581 3 view .LVU273
 582:Src/BLDC_controller.c ****   int32_T tmp;
 981              		.loc 1 582 3 view .LVU274
 583:Src/BLDC_controller.c ****   int16_T tmp_0;
 982              		.loc 1 583 3 view .LVU275
 584:Src/BLDC_controller.c **** 
 585:Src/BLDC_controller.c ****   /* Sum: '<S74>/Sum2' incorporates:
 586:Src/BLDC_controller.c ****    *  Product: '<S74>/Divide2'
 587:Src/BLDC_controller.c ****    */
 588:Src/BLDC_controller.c ****   q0 = rtu_err * rtu_I;
 983              		.loc 1 588 3 view .LVU276
 984              		.loc 1 588 6 is_stmt 0 view .LVU277
 985 000e 00FB02F2 		mul	r2, r0, r2
 986              	.LVL81:
 589:Src/BLDC_controller.c ****   if ((q0 < 0) && (rtu_ext_limProt < MIN_int32_T - q0)) {
 987              		.loc 1 589 3 is_stmt 1 view .LVU278
 988              		.loc 1 589 6 is_stmt 0 view .LVU279
 989 0012 002A     		cmp	r2, #0
 990 0014 0ADB     		blt	.L95
 590:Src/BLDC_controller.c ****     q0 = MIN_int32_T;
 591:Src/BLDC_controller.c ****   } else if ((q0 > 0) && (rtu_ext_limProt > MAX_int32_T - q0)) {
 991              		.loc 1 591 10 is_stmt 1 view .LVU280
 992              		.loc 1 591 13 is_stmt 0 view .LVU281
 993 0016 002A     		cmp	r2, #0
 994 0018 0CDD     		ble	.L71
ARM GAS  /tmp/cccGHnrd.s 			page 29


 995              		.loc 1 591 57 discriminator 1 view .LVU282
 996 001a 6FF0004C 		mvn	ip, #-2147483648
 997 001e ACEB020C 		sub	ip, ip, r2
 998              		.loc 1 591 23 discriminator 1 view .LVU283
 999 0022 AC45     		cmp	ip, r5
 1000 0024 06DA     		bge	.L71
 592:Src/BLDC_controller.c ****     q0 = MAX_int32_T;
 1001              		.loc 1 592 8 view .LVU284
 1002 0026 6FF0004C 		mvn	ip, #-2147483648
 1003 002a 05E0     		b	.L70
 1004              	.L95:
 589:Src/BLDC_controller.c ****   if ((q0 < 0) && (rtu_ext_limProt < MIN_int32_T - q0)) {
 1005              		.loc 1 589 50 discriminator 1 view .LVU285
 1006 002c C2F1004C 		rsb	ip, r2, #-2147483648
 589:Src/BLDC_controller.c ****   if ((q0 < 0) && (rtu_ext_limProt < MIN_int32_T - q0)) {
 1007              		.loc 1 589 16 discriminator 1 view .LVU286
 1008 0030 AC45     		cmp	ip, r5
 1009 0032 14DC     		bgt	.L82
 1010              	.L71:
 593:Src/BLDC_controller.c ****   } else {
 594:Src/BLDC_controller.c ****     q0 += rtu_ext_limProt;
 1011              		.loc 1 594 5 is_stmt 1 view .LVU287
 1012              		.loc 1 594 8 is_stmt 0 view .LVU288
 1013 0034 02EB050C 		add	ip, r2, r5
 1014              	.LVL82:
 1015              	.L70:
 595:Src/BLDC_controller.c ****   }
 596:Src/BLDC_controller.c **** 
 597:Src/BLDC_controller.c ****   /* Delay: '<S77>/Resettable Delay' */
 598:Src/BLDC_controller.c ****   if (localDW->icLoad != 0) {
 1016              		.loc 1 598 3 is_stmt 1 view .LVU289
 1017              		.loc 1 598 14 is_stmt 0 view .LVU290
 1018 0038 2279     		ldrb	r2, [r4, #4]	@ zero_extendqisi2
 1019              		.loc 1 598 6 view .LVU291
 1020 003a 02B1     		cbz	r2, .L72
 599:Src/BLDC_controller.c ****     localDW->ResettableDelay_DSTATE = rtu_init;
 1021              		.loc 1 599 5 is_stmt 1 view .LVU292
 1022              		.loc 1 599 37 is_stmt 0 view .LVU293
 1023 003c 2360     		str	r3, [r4]
 1024              	.L72:
 600:Src/BLDC_controller.c ****   }
 601:Src/BLDC_controller.c **** 
 602:Src/BLDC_controller.c ****   /* Switch: '<S74>/Switch1' incorporates:
 603:Src/BLDC_controller.c ****    *  Constant: '<S74>/Constant'
 604:Src/BLDC_controller.c ****    *  Sum: '<S74>/Sum2'
 605:Src/BLDC_controller.c ****    *  UnitDelay: '<S74>/UnitDelay1'
 606:Src/BLDC_controller.c ****    */
 607:Src/BLDC_controller.c ****   if (localDW->UnitDelay1_DSTATE) {
 1025              		.loc 1 607 3 is_stmt 1 view .LVU294
 1026              		.loc 1 607 14 is_stmt 0 view .LVU295
 1027 003e 6379     		ldrb	r3, [r4, #5]	@ zero_extendqisi2
 1028              	.LVL83:
 1029              		.loc 1 607 6 view .LVU296
 1030 0040 83B1     		cbz	r3, .L84
 608:Src/BLDC_controller.c ****     tmp = 0;
 1031              		.loc 1 608 9 view .LVU297
 1032 0042 0023     		movs	r3, #0
ARM GAS  /tmp/cccGHnrd.s 			page 30


 1033              	.L73:
 1034              	.LVL84:
 609:Src/BLDC_controller.c ****   } else {
 610:Src/BLDC_controller.c ****     tmp = q0;
 611:Src/BLDC_controller.c ****   }
 612:Src/BLDC_controller.c **** 
 613:Src/BLDC_controller.c ****   /* End of Switch: '<S74>/Switch1' */
 614:Src/BLDC_controller.c **** 
 615:Src/BLDC_controller.c ****   /* Sum: '<S77>/Sum1' incorporates:
 616:Src/BLDC_controller.c ****    *  Delay: '<S77>/Resettable Delay'
 617:Src/BLDC_controller.c ****    */
 618:Src/BLDC_controller.c ****   rtb_Sum1_p0 = tmp + localDW->ResettableDelay_DSTATE;
 1035              		.loc 1 618 3 is_stmt 1 view .LVU298
 1036              		.loc 1 618 30 is_stmt 0 view .LVU299
 1037 0044 2568     		ldr	r5, [r4]
 1038              		.loc 1 618 15 view .LVU300
 1039 0046 1D44     		add	r5, r5, r3
 1040              	.LVL85:
 619:Src/BLDC_controller.c **** 
 620:Src/BLDC_controller.c ****   /* Product: '<S74>/Divide5' */
 621:Src/BLDC_controller.c ****   tmp = (rtu_err * rtu_P) >> 11;
 1041              		.loc 1 621 3 is_stmt 1 view .LVU301
 1042              		.loc 1 621 18 is_stmt 0 view .LVU302
 1043 0048 00FB01F1 		mul	r1, r0, r1
 1044              	.LVL86:
 1045              		.loc 1 621 7 view .LVU303
 1046 004c CB12     		asrs	r3, r1, #11
 1047              	.LVL87:
 622:Src/BLDC_controller.c ****   if (tmp > 32767) {
 1048              		.loc 1 622 3 is_stmt 1 view .LVU304
 1049              		.loc 1 622 6 is_stmt 0 view .LVU305
 1050 004e B1F1806F 		cmp	r1, #67108864
 1051 0052 09DA     		bge	.L85
 623:Src/BLDC_controller.c ****     tmp = 32767;
 624:Src/BLDC_controller.c ****   } else {
 625:Src/BLDC_controller.c ****     if (tmp < -32768) {
 1052              		.loc 1 625 5 is_stmt 1 view .LVU306
 1053              		.loc 1 625 8 is_stmt 0 view .LVU307
 1054 0054 13F5004F 		cmn	r3, #32768
 1055 0058 08DA     		bge	.L74
 626:Src/BLDC_controller.c ****       tmp = -32768;
 1056              		.loc 1 626 11 view .LVU308
 1057 005a 254B     		ldr	r3, .L97
 1058              	.LVL88:
 1059              		.loc 1 626 11 view .LVU309
 1060 005c 06E0     		b	.L74
 1061              	.LVL89:
 1062              	.L82:
 590:Src/BLDC_controller.c ****   } else if ((q0 > 0) && (rtu_ext_limProt > MAX_int32_T - q0)) {
 1063              		.loc 1 590 8 view .LVU310
 1064 005e 4FF0004C 		mov	ip, #-2147483648
 1065 0062 E9E7     		b	.L70
 1066              	.LVL90:
 1067              	.L84:
 610:Src/BLDC_controller.c ****   }
 1068              		.loc 1 610 9 view .LVU311
 1069 0064 6346     		mov	r3, ip
ARM GAS  /tmp/cccGHnrd.s 			page 31


 1070 0066 EDE7     		b	.L73
 1071              	.LVL91:
 1072              	.L85:
 623:Src/BLDC_controller.c ****   } else {
 1073              		.loc 1 623 9 view .LVU312
 1074 0068 47F6FF73 		movw	r3, #32767
 1075              	.LVL92:
 1076              	.L74:
 627:Src/BLDC_controller.c ****     }
 628:Src/BLDC_controller.c ****   }
 629:Src/BLDC_controller.c **** 
 630:Src/BLDC_controller.c ****   /* Sum: '<S74>/Sum1' incorporates:
 631:Src/BLDC_controller.c ****    *  DataTypeConversion: '<S77>/Data Type Conversion1'
 632:Src/BLDC_controller.c ****    *  Product: '<S74>/Divide5'
 633:Src/BLDC_controller.c ****    */
 634:Src/BLDC_controller.c ****   tmp = (((rtb_Sum1_p0 >> 16) << 1) + tmp) >> 1;
 1077              		.loc 1 634 3 is_stmt 1 view .LVU313
 1078              		.loc 1 634 24 is_stmt 0 view .LVU314
 1079 006c 2A14     		asrs	r2, r5, #16
 1080              		.loc 1 634 37 view .LVU315
 1081 006e 03EB4202 		add	r2, r3, r2, lsl #1
 1082              		.loc 1 634 7 view .LVU316
 1083 0072 5310     		asrs	r3, r2, #1
 1084              	.LVL93:
 635:Src/BLDC_controller.c ****   if (tmp > 32767) {
 1085              		.loc 1 635 3 is_stmt 1 view .LVU317
 1086              		.loc 1 635 6 is_stmt 0 view .LVU318
 1087 0074 B2F5803F 		cmp	r2, #65536
 1088 0078 04DA     		bge	.L87
 636:Src/BLDC_controller.c ****     tmp = 32767;
 637:Src/BLDC_controller.c ****   } else {
 638:Src/BLDC_controller.c ****     if (tmp < -32768) {
 1089              		.loc 1 638 5 is_stmt 1 view .LVU319
 1090              		.loc 1 638 8 is_stmt 0 view .LVU320
 1091 007a 13F5004F 		cmn	r3, #32768
 1092 007e 03DA     		bge	.L75
 639:Src/BLDC_controller.c ****       tmp = -32768;
 1093              		.loc 1 639 11 view .LVU321
 1094 0080 1B4B     		ldr	r3, .L97
 1095              	.LVL94:
 1096              		.loc 1 639 11 view .LVU322
 1097 0082 01E0     		b	.L75
 1098              	.LVL95:
 1099              	.L87:
 636:Src/BLDC_controller.c ****     tmp = 32767;
 1100              		.loc 1 636 9 view .LVU323
 1101 0084 47F6FF73 		movw	r3, #32767
 1102              	.LVL96:
 1103              	.L75:
 640:Src/BLDC_controller.c ****     }
 641:Src/BLDC_controller.c ****   }
 642:Src/BLDC_controller.c **** 
 643:Src/BLDC_controller.c ****   /* RelationalOperator: '<S78>/LowerRelop1' incorporates:
 644:Src/BLDC_controller.c ****    *  Sum: '<S74>/Sum1'
 645:Src/BLDC_controller.c ****    */
 646:Src/BLDC_controller.c ****   rtb_LowerRelop1_c0 = ((int16_T)tmp > rtu_satMax);
 1104              		.loc 1 646 3 is_stmt 1 view .LVU324
ARM GAS  /tmp/cccGHnrd.s 			page 32


 1105              		.loc 1 646 25 is_stmt 0 view .LVU325
 1106 0088 1BB2     		sxth	r3, r3
 1107              	.LVL97:
 647:Src/BLDC_controller.c **** 
 648:Src/BLDC_controller.c ****   /* RelationalOperator: '<S78>/UpperRelop' incorporates:
 649:Src/BLDC_controller.c ****    *  Sum: '<S74>/Sum1'
 650:Src/BLDC_controller.c ****    */
 651:Src/BLDC_controller.c ****   rtb_UpperRelop_f = ((int16_T)tmp < rtu_satMin);
 1108              		.loc 1 651 3 is_stmt 1 view .LVU326
 652:Src/BLDC_controller.c **** 
 653:Src/BLDC_controller.c ****   /* Switch: '<S78>/Switch1' incorporates:
 654:Src/BLDC_controller.c ****    *  Sum: '<S74>/Sum1'
 655:Src/BLDC_controller.c ****    *  Switch: '<S78>/Switch3'
 656:Src/BLDC_controller.c ****    */
 657:Src/BLDC_controller.c ****   if (rtb_LowerRelop1_c0) {
 1109              		.loc 1 657 3 view .LVU327
 1110              		.loc 1 657 6 is_stmt 0 view .LVU328
 1111 008a 7345     		cmp	r3, lr
 1112 008c 18DD     		ble	.L76
 658:Src/BLDC_controller.c ****     *rty_out = rtu_satMax;
 1113              		.loc 1 658 5 is_stmt 1 view .LVU329
 1114              		.loc 1 658 14 is_stmt 0 view .LVU330
 1115 008e 079A     		ldr	r2, [sp, #28]
 1116 0090 A2F800E0 		strh	lr, [r2]	@ movhi
 1117              	.L77:
 659:Src/BLDC_controller.c ****   } else if (rtb_UpperRelop_f) {
 660:Src/BLDC_controller.c ****     /* Switch: '<S78>/Switch3' */
 661:Src/BLDC_controller.c ****     *rty_out = rtu_satMin;
 662:Src/BLDC_controller.c ****   } else {
 663:Src/BLDC_controller.c ****     *rty_out = (int16_T)tmp;
 664:Src/BLDC_controller.c ****   }
 665:Src/BLDC_controller.c **** 
 666:Src/BLDC_controller.c ****   /* End of Switch: '<S78>/Switch1' */
 667:Src/BLDC_controller.c **** 
 668:Src/BLDC_controller.c ****   /* Signum: '<S76>/SignDeltaU2' incorporates:
 669:Src/BLDC_controller.c ****    *  Sum: '<S74>/Sum2'
 670:Src/BLDC_controller.c ****    */
 671:Src/BLDC_controller.c ****   if (q0 < 0) {
 1118              		.loc 1 671 3 is_stmt 1 view .LVU331
 1119              		.loc 1 671 6 is_stmt 0 view .LVU332
 1120 0094 BCF1000F 		cmp	ip, #0
 1121 0098 1ADB     		blt	.L89
 672:Src/BLDC_controller.c ****     q0 = -1;
 673:Src/BLDC_controller.c ****   } else {
 674:Src/BLDC_controller.c ****     q0 = (q0 > 0);
 1122              		.loc 1 674 5 is_stmt 1 view .LVU333
 1123              		.loc 1 674 14 is_stmt 0 view .LVU334
 1124 009a BCF1000F 		cmp	ip, #0
 1125 009e D4BF     		ite	le
 1126 00a0 0022     		movle	r2, #0
 1127 00a2 0122     		movgt	r2, #1
 1128              	.LVL98:
 1129              	.L79:
 675:Src/BLDC_controller.c ****   }
 676:Src/BLDC_controller.c **** 
 677:Src/BLDC_controller.c ****   /* End of Signum: '<S76>/SignDeltaU2' */
 678:Src/BLDC_controller.c **** 
ARM GAS  /tmp/cccGHnrd.s 			page 33


 679:Src/BLDC_controller.c ****   /* Signum: '<S76>/SignDeltaU3' incorporates:
 680:Src/BLDC_controller.c ****    *  Sum: '<S74>/Sum1'
 681:Src/BLDC_controller.c ****    */
 682:Src/BLDC_controller.c ****   if ((int16_T)tmp < 0) {
 1130              		.loc 1 682 3 is_stmt 1 view .LVU335
 1131              		.loc 1 682 6 is_stmt 0 view .LVU336
 1132 00a4 002B     		cmp	r3, #0
 1133 00a6 16DB     		blt	.L90
 683:Src/BLDC_controller.c ****     tmp_0 = -1;
 684:Src/BLDC_controller.c ****   } else {
 685:Src/BLDC_controller.c ****     tmp_0 = (int16_T)((int16_T)tmp > 0);
 1134              		.loc 1 685 5 is_stmt 1 view .LVU337
 1135              		.loc 1 685 11 is_stmt 0 view .LVU338
 1136 00a8 002B     		cmp	r3, #0
 1137 00aa D4BF     		ite	le
 1138 00ac 0021     		movle	r1, #0
 1139 00ae 0121     		movgt	r1, #1
 1140              	.LVL99:
 1141              	.L80:
 686:Src/BLDC_controller.c ****   }
 687:Src/BLDC_controller.c **** 
 688:Src/BLDC_controller.c ****   /* End of Signum: '<S76>/SignDeltaU3' */
 689:Src/BLDC_controller.c **** 
 690:Src/BLDC_controller.c ****   /* Update for UnitDelay: '<S74>/UnitDelay1' incorporates:
 691:Src/BLDC_controller.c ****    *  DataTypeConversion: '<S76>/DataTypeConv4'
 692:Src/BLDC_controller.c ****    *  Logic: '<S74>/AND1'
 693:Src/BLDC_controller.c ****    *  Logic: '<S76>/AND1'
 694:Src/BLDC_controller.c ****    *  RelationalOperator: '<S76>/Equal1'
 695:Src/BLDC_controller.c ****    */
 696:Src/BLDC_controller.c ****   localDW->UnitDelay1_DSTATE = ((q0 == tmp_0) && (rtb_LowerRelop1_c0 ||
 1142              		.loc 1 696 3 is_stmt 1 view .LVU339
 1143              		.loc 1 696 47 is_stmt 0 view .LVU340
 1144 00b0 9142     		cmp	r1, r2
 1145 00b2 13D0     		beq	.L96
 1146              		.loc 1 696 47 discriminator 6 view .LVU341
 1147 00b4 0023     		movs	r3, #0
 1148              	.LVL100:
 1149              	.L81:
 1150              		.loc 1 696 30 discriminator 8 view .LVU342
 1151 00b6 6371     		strb	r3, [r4, #5]
 697:Src/BLDC_controller.c ****     rtb_UpperRelop_f));
 698:Src/BLDC_controller.c **** 
 699:Src/BLDC_controller.c ****   /* Update for Delay: '<S77>/Resettable Delay' */
 700:Src/BLDC_controller.c ****   localDW->icLoad = 0U;
 1152              		.loc 1 700 3 is_stmt 1 view .LVU343
 1153              		.loc 1 700 19 is_stmt 0 view .LVU344
 1154 00b8 0023     		movs	r3, #0
 1155 00ba 2371     		strb	r3, [r4, #4]
 701:Src/BLDC_controller.c ****   localDW->ResettableDelay_DSTATE = rtb_Sum1_p0;
 1156              		.loc 1 701 3 is_stmt 1 view .LVU345
 1157              		.loc 1 701 35 is_stmt 0 view .LVU346
 1158 00bc 2560     		str	r5, [r4]
 702:Src/BLDC_controller.c **** }
 1159              		.loc 1 702 1 view .LVU347
 1160 00be 70BD     		pop	{r4, r5, r6, pc}
 1161              	.LVL101:
 1162              	.L76:
ARM GAS  /tmp/cccGHnrd.s 			page 34


 659:Src/BLDC_controller.c ****     /* Switch: '<S78>/Switch3' */
 1163              		.loc 1 659 10 is_stmt 1 view .LVU348
 659:Src/BLDC_controller.c ****     /* Switch: '<S78>/Switch3' */
 1164              		.loc 1 659 13 is_stmt 0 view .LVU349
 1165 00c0 B342     		cmp	r3, r6
 1166 00c2 02DA     		bge	.L78
 661:Src/BLDC_controller.c ****   } else {
 1167              		.loc 1 661 5 is_stmt 1 view .LVU350
 661:Src/BLDC_controller.c ****   } else {
 1168              		.loc 1 661 14 is_stmt 0 view .LVU351
 1169 00c4 079A     		ldr	r2, [sp, #28]
 1170 00c6 1680     		strh	r6, [r2]	@ movhi
 1171 00c8 E4E7     		b	.L77
 1172              	.L78:
 663:Src/BLDC_controller.c ****   }
 1173              		.loc 1 663 5 is_stmt 1 view .LVU352
 663:Src/BLDC_controller.c ****   }
 1174              		.loc 1 663 14 is_stmt 0 view .LVU353
 1175 00ca 079A     		ldr	r2, [sp, #28]
 1176 00cc 1380     		strh	r3, [r2]	@ movhi
 1177 00ce E1E7     		b	.L77
 1178              	.L89:
 672:Src/BLDC_controller.c ****   } else {
 1179              		.loc 1 672 8 view .LVU354
 1180 00d0 4FF0FF32 		mov	r2, #-1
 1181 00d4 E6E7     		b	.L79
 1182              	.LVL102:
 1183              	.L90:
 683:Src/BLDC_controller.c ****   } else {
 1184              		.loc 1 683 11 view .LVU355
 1185 00d6 4FF0FF31 		mov	r1, #-1
 1186 00da E9E7     		b	.L80
 1187              	.LVL103:
 1188              	.L96:
 696:Src/BLDC_controller.c ****     rtb_UpperRelop_f));
 1189              		.loc 1 696 47 discriminator 1 view .LVU356
 1190 00dc 7345     		cmp	r3, lr
 1191 00de 03DC     		bgt	.L92
 696:Src/BLDC_controller.c ****     rtb_UpperRelop_f));
 1192              		.loc 1 696 70 discriminator 4 view .LVU357
 1193 00e0 B342     		cmp	r3, r6
 1194 00e2 03DB     		blt	.L93
 696:Src/BLDC_controller.c ****     rtb_UpperRelop_f));
 1195              		.loc 1 696 47 discriminator 6 view .LVU358
 1196 00e4 0023     		movs	r3, #0
 1197              	.LVL104:
 696:Src/BLDC_controller.c ****     rtb_UpperRelop_f));
 1198              		.loc 1 696 47 discriminator 6 view .LVU359
 1199 00e6 E6E7     		b	.L81
 1200              	.LVL105:
 1201              	.L92:
 696:Src/BLDC_controller.c ****     rtb_UpperRelop_f));
 1202              		.loc 1 696 47 discriminator 5 view .LVU360
 1203 00e8 0123     		movs	r3, #1
 1204              	.LVL106:
 696:Src/BLDC_controller.c ****     rtb_UpperRelop_f));
 1205              		.loc 1 696 47 discriminator 5 view .LVU361
ARM GAS  /tmp/cccGHnrd.s 			page 35


 1206 00ea E4E7     		b	.L81
 1207              	.LVL107:
 1208              	.L93:
 696:Src/BLDC_controller.c ****     rtb_UpperRelop_f));
 1209              		.loc 1 696 47 discriminator 5 view .LVU362
 1210 00ec 0123     		movs	r3, #1
 1211              	.LVL108:
 696:Src/BLDC_controller.c ****     rtb_UpperRelop_f));
 1212              		.loc 1 696 47 discriminator 5 view .LVU363
 1213 00ee E2E7     		b	.L81
 1214              	.L98:
 1215              		.align	2
 1216              	.L97:
 1217 00f0 0080FFFF 		.word	-32768
 1218              		.cfi_endproc
 1219              	.LFE17:
 1221              		.section	.text.PI_clamp_fixdt_d_Init,"ax",%progbits
 1222              		.align	1
 1223              		.global	PI_clamp_fixdt_d_Init
 1224              		.syntax unified
 1225              		.thumb
 1226              		.thumb_func
 1228              	PI_clamp_fixdt_d_Init:
 1229              	.LVL109:
 1230              	.LFB18:
 703:Src/BLDC_controller.c **** 
 704:Src/BLDC_controller.c **** /* System initialize for atomic system: '<S61>/PI_clamp_fixdt' */
 705:Src/BLDC_controller.c **** void PI_clamp_fixdt_d_Init(DW_PI_clamp_fixdt_m *localDW)
 706:Src/BLDC_controller.c **** {
 1231              		.loc 1 706 1 is_stmt 1 view -0
 1232              		.cfi_startproc
 1233              		@ args = 0, pretend = 0, frame = 0
 1234              		@ frame_needed = 0, uses_anonymous_args = 0
 1235              		@ link register save eliminated.
 707:Src/BLDC_controller.c ****   /* InitializeConditions for Delay: '<S67>/Resettable Delay' */
 708:Src/BLDC_controller.c ****   localDW->icLoad = 1U;
 1236              		.loc 1 708 3 view .LVU365
 1237              		.loc 1 708 19 is_stmt 0 view .LVU366
 1238 0000 0123     		movs	r3, #1
 1239 0002 0371     		strb	r3, [r0, #4]
 709:Src/BLDC_controller.c **** }
 1240              		.loc 1 709 1 view .LVU367
 1241 0004 7047     		bx	lr
 1242              		.cfi_endproc
 1243              	.LFE18:
 1245              		.section	.text.PI_clamp_fixdt_b_Reset,"ax",%progbits
 1246              		.align	1
 1247              		.global	PI_clamp_fixdt_b_Reset
 1248              		.syntax unified
 1249              		.thumb
 1250              		.thumb_func
 1252              	PI_clamp_fixdt_b_Reset:
 1253              	.LVL110:
 1254              	.LFB19:
 710:Src/BLDC_controller.c **** 
 711:Src/BLDC_controller.c **** /* System reset for atomic system: '<S61>/PI_clamp_fixdt' */
 712:Src/BLDC_controller.c **** void PI_clamp_fixdt_b_Reset(DW_PI_clamp_fixdt_m *localDW)
ARM GAS  /tmp/cccGHnrd.s 			page 36


 713:Src/BLDC_controller.c **** {
 1255              		.loc 1 713 1 is_stmt 1 view -0
 1256              		.cfi_startproc
 1257              		@ args = 0, pretend = 0, frame = 0
 1258              		@ frame_needed = 0, uses_anonymous_args = 0
 1259              		@ link register save eliminated.
 714:Src/BLDC_controller.c ****   /* InitializeConditions for UnitDelay: '<S65>/UnitDelay1' */
 715:Src/BLDC_controller.c ****   localDW->UnitDelay1_DSTATE = false;
 1260              		.loc 1 715 3 view .LVU369
 1261              		.loc 1 715 30 is_stmt 0 view .LVU370
 1262 0000 0023     		movs	r3, #0
 1263 0002 4371     		strb	r3, [r0, #5]
 716:Src/BLDC_controller.c **** 
 717:Src/BLDC_controller.c ****   /* InitializeConditions for Delay: '<S67>/Resettable Delay' */
 718:Src/BLDC_controller.c ****   localDW->icLoad = 1U;
 1264              		.loc 1 718 3 is_stmt 1 view .LVU371
 1265              		.loc 1 718 19 is_stmt 0 view .LVU372
 1266 0004 0123     		movs	r3, #1
 1267 0006 0371     		strb	r3, [r0, #4]
 719:Src/BLDC_controller.c **** }
 1268              		.loc 1 719 1 view .LVU373
 1269 0008 7047     		bx	lr
 1270              		.cfi_endproc
 1271              	.LFE19:
 1273              		.section	.text.PI_clamp_fixdt_l,"ax",%progbits
 1274              		.align	1
 1275              		.global	PI_clamp_fixdt_l
 1276              		.syntax unified
 1277              		.thumb
 1278              		.thumb_func
 1280              	PI_clamp_fixdt_l:
 1281              	.LVL111:
 1282              	.LFB20:
 720:Src/BLDC_controller.c **** 
 721:Src/BLDC_controller.c **** /* Output and update for atomic system: '<S61>/PI_clamp_fixdt' */
 722:Src/BLDC_controller.c **** void PI_clamp_fixdt_l(int16_T rtu_err, uint16_T rtu_P, uint16_T rtu_I, int16_T
 723:Src/BLDC_controller.c ****                       rtu_init, int16_T rtu_satMax, int16_T rtu_satMin, int32_T
 724:Src/BLDC_controller.c ****                       rtu_ext_limProt, int16_T *rty_out, DW_PI_clamp_fixdt_m
 725:Src/BLDC_controller.c ****                       *localDW)
 726:Src/BLDC_controller.c **** {
 1283              		.loc 1 726 1 is_stmt 1 view -0
 1284              		.cfi_startproc
 1285              		@ args = 20, pretend = 0, frame = 0
 1286              		@ frame_needed = 0, uses_anonymous_args = 0
 1287              		.loc 1 726 1 is_stmt 0 view .LVU375
 1288 0000 70B5     		push	{r4, r5, r6, lr}
 1289              	.LCFI12:
 1290              		.cfi_def_cfa_offset 16
 1291              		.cfi_offset 4, -16
 1292              		.cfi_offset 5, -12
 1293              		.cfi_offset 6, -8
 1294              		.cfi_offset 14, -4
 1295 0002 BDF910E0 		ldrsh	lr, [sp, #16]
 1296 0006 BDF91460 		ldrsh	r6, [sp, #20]
 1297 000a 069D     		ldr	r5, [sp, #24]
 1298 000c 089C     		ldr	r4, [sp, #32]
 727:Src/BLDC_controller.c ****   boolean_T rtb_LowerRelop1_l;
ARM GAS  /tmp/cccGHnrd.s 			page 37


 1299              		.loc 1 727 3 is_stmt 1 view .LVU376
 728:Src/BLDC_controller.c ****   boolean_T rtb_UpperRelop_l;
 1300              		.loc 1 728 3 view .LVU377
 729:Src/BLDC_controller.c ****   int32_T rtb_Sum1_ni;
 1301              		.loc 1 729 3 view .LVU378
 730:Src/BLDC_controller.c ****   int32_T q0;
 1302              		.loc 1 730 3 view .LVU379
 731:Src/BLDC_controller.c ****   int32_T tmp;
 1303              		.loc 1 731 3 view .LVU380
 732:Src/BLDC_controller.c ****   int16_T tmp_0;
 1304              		.loc 1 732 3 view .LVU381
 733:Src/BLDC_controller.c **** 
 734:Src/BLDC_controller.c ****   /* Sum: '<S65>/Sum2' incorporates:
 735:Src/BLDC_controller.c ****    *  Product: '<S65>/Divide2'
 736:Src/BLDC_controller.c ****    */
 737:Src/BLDC_controller.c ****   q0 = rtu_err * rtu_I;
 1305              		.loc 1 737 3 view .LVU382
 1306              		.loc 1 737 6 is_stmt 0 view .LVU383
 1307 000e 00FB02F2 		mul	r2, r0, r2
 1308              	.LVL112:
 738:Src/BLDC_controller.c ****   if ((q0 < 0) && (rtu_ext_limProt < MIN_int32_T - q0)) {
 1309              		.loc 1 738 3 is_stmt 1 view .LVU384
 1310              		.loc 1 738 6 is_stmt 0 view .LVU385
 1311 0012 002A     		cmp	r2, #0
 1312 0014 0ADB     		blt	.L128
 739:Src/BLDC_controller.c ****     q0 = MIN_int32_T;
 740:Src/BLDC_controller.c ****   } else if ((q0 > 0) && (rtu_ext_limProt > MAX_int32_T - q0)) {
 1313              		.loc 1 740 10 is_stmt 1 view .LVU386
 1314              		.loc 1 740 13 is_stmt 0 view .LVU387
 1315 0016 002A     		cmp	r2, #0
 1316 0018 0CDD     		ble	.L104
 1317              		.loc 1 740 57 discriminator 1 view .LVU388
 1318 001a 6FF0004C 		mvn	ip, #-2147483648
 1319 001e ACEB020C 		sub	ip, ip, r2
 1320              		.loc 1 740 23 discriminator 1 view .LVU389
 1321 0022 AC45     		cmp	ip, r5
 1322 0024 06DA     		bge	.L104
 741:Src/BLDC_controller.c ****     q0 = MAX_int32_T;
 1323              		.loc 1 741 8 view .LVU390
 1324 0026 6FF0004C 		mvn	ip, #-2147483648
 1325 002a 05E0     		b	.L103
 1326              	.L128:
 738:Src/BLDC_controller.c ****   if ((q0 < 0) && (rtu_ext_limProt < MIN_int32_T - q0)) {
 1327              		.loc 1 738 50 discriminator 1 view .LVU391
 1328 002c C2F1004C 		rsb	ip, r2, #-2147483648
 738:Src/BLDC_controller.c ****   if ((q0 < 0) && (rtu_ext_limProt < MIN_int32_T - q0)) {
 1329              		.loc 1 738 16 discriminator 1 view .LVU392
 1330 0030 AC45     		cmp	ip, r5
 1331 0032 15DC     		bgt	.L115
 1332              	.L104:
 742:Src/BLDC_controller.c ****   } else {
 743:Src/BLDC_controller.c ****     q0 += rtu_ext_limProt;
 1333              		.loc 1 743 5 is_stmt 1 view .LVU393
 1334              		.loc 1 743 8 is_stmt 0 view .LVU394
 1335 0034 02EB050C 		add	ip, r2, r5
 1336              	.LVL113:
 1337              	.L103:
ARM GAS  /tmp/cccGHnrd.s 			page 38


 744:Src/BLDC_controller.c ****   }
 745:Src/BLDC_controller.c **** 
 746:Src/BLDC_controller.c ****   /* Delay: '<S67>/Resettable Delay' */
 747:Src/BLDC_controller.c ****   if (localDW->icLoad != 0) {
 1338              		.loc 1 747 3 is_stmt 1 view .LVU395
 1339              		.loc 1 747 14 is_stmt 0 view .LVU396
 1340 0038 2279     		ldrb	r2, [r4, #4]	@ zero_extendqisi2
 1341              		.loc 1 747 6 view .LVU397
 1342 003a 0AB1     		cbz	r2, .L105
 748:Src/BLDC_controller.c ****     localDW->ResettableDelay_DSTATE = rtu_init << 16;
 1343              		.loc 1 748 5 is_stmt 1 view .LVU398
 1344              		.loc 1 748 48 is_stmt 0 view .LVU399
 1345 003c 1B04     		lsls	r3, r3, #16
 1346              	.LVL114:
 1347              		.loc 1 748 37 view .LVU400
 1348 003e 2360     		str	r3, [r4]
 1349              	.L105:
 749:Src/BLDC_controller.c ****   }
 750:Src/BLDC_controller.c **** 
 751:Src/BLDC_controller.c ****   /* Switch: '<S65>/Switch1' incorporates:
 752:Src/BLDC_controller.c ****    *  Constant: '<S65>/Constant'
 753:Src/BLDC_controller.c ****    *  Sum: '<S65>/Sum2'
 754:Src/BLDC_controller.c ****    *  UnitDelay: '<S65>/UnitDelay1'
 755:Src/BLDC_controller.c ****    */
 756:Src/BLDC_controller.c ****   if (localDW->UnitDelay1_DSTATE) {
 1350              		.loc 1 756 3 is_stmt 1 view .LVU401
 1351              		.loc 1 756 14 is_stmt 0 view .LVU402
 1352 0040 6379     		ldrb	r3, [r4, #5]	@ zero_extendqisi2
 1353              		.loc 1 756 6 view .LVU403
 1354 0042 83B1     		cbz	r3, .L117
 757:Src/BLDC_controller.c ****     tmp = 0;
 1355              		.loc 1 757 9 view .LVU404
 1356 0044 0023     		movs	r3, #0
 1357              	.L106:
 1358              	.LVL115:
 758:Src/BLDC_controller.c ****   } else {
 759:Src/BLDC_controller.c ****     tmp = q0;
 760:Src/BLDC_controller.c ****   }
 761:Src/BLDC_controller.c **** 
 762:Src/BLDC_controller.c ****   /* End of Switch: '<S65>/Switch1' */
 763:Src/BLDC_controller.c **** 
 764:Src/BLDC_controller.c ****   /* Sum: '<S67>/Sum1' incorporates:
 765:Src/BLDC_controller.c ****    *  Delay: '<S67>/Resettable Delay'
 766:Src/BLDC_controller.c ****    */
 767:Src/BLDC_controller.c ****   rtb_Sum1_ni = tmp + localDW->ResettableDelay_DSTATE;
 1359              		.loc 1 767 3 is_stmt 1 view .LVU405
 1360              		.loc 1 767 30 is_stmt 0 view .LVU406
 1361 0046 2568     		ldr	r5, [r4]
 1362              		.loc 1 767 15 view .LVU407
 1363 0048 1D44     		add	r5, r5, r3
 1364              	.LVL116:
 768:Src/BLDC_controller.c **** 
 769:Src/BLDC_controller.c ****   /* Product: '<S65>/Divide5' */
 770:Src/BLDC_controller.c ****   tmp = (rtu_err * rtu_P) >> 11;
 1365              		.loc 1 770 3 is_stmt 1 view .LVU408
 1366              		.loc 1 770 18 is_stmt 0 view .LVU409
 1367 004a 00FB01F1 		mul	r1, r0, r1
ARM GAS  /tmp/cccGHnrd.s 			page 39


 1368              	.LVL117:
 1369              		.loc 1 770 7 view .LVU410
 1370 004e CB12     		asrs	r3, r1, #11
 1371              	.LVL118:
 771:Src/BLDC_controller.c ****   if (tmp > 32767) {
 1372              		.loc 1 771 3 is_stmt 1 view .LVU411
 1373              		.loc 1 771 6 is_stmt 0 view .LVU412
 1374 0050 B1F1806F 		cmp	r1, #67108864
 1375 0054 09DA     		bge	.L118
 772:Src/BLDC_controller.c ****     tmp = 32767;
 773:Src/BLDC_controller.c ****   } else {
 774:Src/BLDC_controller.c ****     if (tmp < -32768) {
 1376              		.loc 1 774 5 is_stmt 1 view .LVU413
 1377              		.loc 1 774 8 is_stmt 0 view .LVU414
 1378 0056 13F5004F 		cmn	r3, #32768
 1379 005a 08DA     		bge	.L107
 775:Src/BLDC_controller.c ****       tmp = -32768;
 1380              		.loc 1 775 11 view .LVU415
 1381 005c 254B     		ldr	r3, .L130
 1382              	.LVL119:
 1383              		.loc 1 775 11 view .LVU416
 1384 005e 06E0     		b	.L107
 1385              	.LVL120:
 1386              	.L115:
 739:Src/BLDC_controller.c ****   } else if ((q0 > 0) && (rtu_ext_limProt > MAX_int32_T - q0)) {
 1387              		.loc 1 739 8 view .LVU417
 1388 0060 4FF0004C 		mov	ip, #-2147483648
 1389 0064 E8E7     		b	.L103
 1390              	.LVL121:
 1391              	.L117:
 759:Src/BLDC_controller.c ****   }
 1392              		.loc 1 759 9 view .LVU418
 1393 0066 6346     		mov	r3, ip
 1394 0068 EDE7     		b	.L106
 1395              	.LVL122:
 1396              	.L118:
 772:Src/BLDC_controller.c ****   } else {
 1397              		.loc 1 772 9 view .LVU419
 1398 006a 47F6FF73 		movw	r3, #32767
 1399              	.LVL123:
 1400              	.L107:
 776:Src/BLDC_controller.c ****     }
 777:Src/BLDC_controller.c ****   }
 778:Src/BLDC_controller.c **** 
 779:Src/BLDC_controller.c ****   /* Sum: '<S65>/Sum1' incorporates:
 780:Src/BLDC_controller.c ****    *  DataTypeConversion: '<S67>/Data Type Conversion1'
 781:Src/BLDC_controller.c ****    *  Product: '<S65>/Divide5'
 782:Src/BLDC_controller.c ****    */
 783:Src/BLDC_controller.c ****   tmp = (((rtb_Sum1_ni >> 16) << 1) + tmp) >> 1;
 1401              		.loc 1 783 3 is_stmt 1 view .LVU420
 1402              		.loc 1 783 24 is_stmt 0 view .LVU421
 1403 006e 2A14     		asrs	r2, r5, #16
 1404              		.loc 1 783 37 view .LVU422
 1405 0070 03EB4202 		add	r2, r3, r2, lsl #1
 1406              		.loc 1 783 7 view .LVU423
 1407 0074 5310     		asrs	r3, r2, #1
 1408              	.LVL124:
ARM GAS  /tmp/cccGHnrd.s 			page 40


 784:Src/BLDC_controller.c ****   if (tmp > 32767) {
 1409              		.loc 1 784 3 is_stmt 1 view .LVU424
 1410              		.loc 1 784 6 is_stmt 0 view .LVU425
 1411 0076 B2F5803F 		cmp	r2, #65536
 1412 007a 04DA     		bge	.L120
 785:Src/BLDC_controller.c ****     tmp = 32767;
 786:Src/BLDC_controller.c ****   } else {
 787:Src/BLDC_controller.c ****     if (tmp < -32768) {
 1413              		.loc 1 787 5 is_stmt 1 view .LVU426
 1414              		.loc 1 787 8 is_stmt 0 view .LVU427
 1415 007c 13F5004F 		cmn	r3, #32768
 1416 0080 03DA     		bge	.L108
 788:Src/BLDC_controller.c ****       tmp = -32768;
 1417              		.loc 1 788 11 view .LVU428
 1418 0082 1C4B     		ldr	r3, .L130
 1419              	.LVL125:
 1420              		.loc 1 788 11 view .LVU429
 1421 0084 01E0     		b	.L108
 1422              	.LVL126:
 1423              	.L120:
 785:Src/BLDC_controller.c ****     tmp = 32767;
 1424              		.loc 1 785 9 view .LVU430
 1425 0086 47F6FF73 		movw	r3, #32767
 1426              	.LVL127:
 1427              	.L108:
 789:Src/BLDC_controller.c ****     }
 790:Src/BLDC_controller.c ****   }
 791:Src/BLDC_controller.c **** 
 792:Src/BLDC_controller.c ****   /* RelationalOperator: '<S68>/LowerRelop1' incorporates:
 793:Src/BLDC_controller.c ****    *  Sum: '<S65>/Sum1'
 794:Src/BLDC_controller.c ****    */
 795:Src/BLDC_controller.c ****   rtb_LowerRelop1_l = ((int16_T)tmp > rtu_satMax);
 1428              		.loc 1 795 3 is_stmt 1 view .LVU431
 1429              		.loc 1 795 24 is_stmt 0 view .LVU432
 1430 008a 1BB2     		sxth	r3, r3
 1431              	.LVL128:
 796:Src/BLDC_controller.c **** 
 797:Src/BLDC_controller.c ****   /* RelationalOperator: '<S68>/UpperRelop' incorporates:
 798:Src/BLDC_controller.c ****    *  Sum: '<S65>/Sum1'
 799:Src/BLDC_controller.c ****    */
 800:Src/BLDC_controller.c ****   rtb_UpperRelop_l = ((int16_T)tmp < rtu_satMin);
 1432              		.loc 1 800 3 is_stmt 1 view .LVU433
 801:Src/BLDC_controller.c **** 
 802:Src/BLDC_controller.c ****   /* Switch: '<S68>/Switch1' incorporates:
 803:Src/BLDC_controller.c ****    *  Sum: '<S65>/Sum1'
 804:Src/BLDC_controller.c ****    *  Switch: '<S68>/Switch3'
 805:Src/BLDC_controller.c ****    */
 806:Src/BLDC_controller.c ****   if (rtb_LowerRelop1_l) {
 1433              		.loc 1 806 3 view .LVU434
 1434              		.loc 1 806 6 is_stmt 0 view .LVU435
 1435 008c 7345     		cmp	r3, lr
 1436 008e 18DD     		ble	.L109
 807:Src/BLDC_controller.c ****     *rty_out = rtu_satMax;
 1437              		.loc 1 807 5 is_stmt 1 view .LVU436
 1438              		.loc 1 807 14 is_stmt 0 view .LVU437
 1439 0090 079A     		ldr	r2, [sp, #28]
 1440 0092 A2F800E0 		strh	lr, [r2]	@ movhi
ARM GAS  /tmp/cccGHnrd.s 			page 41


 1441              	.L110:
 808:Src/BLDC_controller.c ****   } else if (rtb_UpperRelop_l) {
 809:Src/BLDC_controller.c ****     /* Switch: '<S68>/Switch3' */
 810:Src/BLDC_controller.c ****     *rty_out = rtu_satMin;
 811:Src/BLDC_controller.c ****   } else {
 812:Src/BLDC_controller.c ****     *rty_out = (int16_T)tmp;
 813:Src/BLDC_controller.c ****   }
 814:Src/BLDC_controller.c **** 
 815:Src/BLDC_controller.c ****   /* End of Switch: '<S68>/Switch1' */
 816:Src/BLDC_controller.c **** 
 817:Src/BLDC_controller.c ****   /* Signum: '<S66>/SignDeltaU2' incorporates:
 818:Src/BLDC_controller.c ****    *  Sum: '<S65>/Sum2'
 819:Src/BLDC_controller.c ****    */
 820:Src/BLDC_controller.c ****   if (q0 < 0) {
 1442              		.loc 1 820 3 is_stmt 1 view .LVU438
 1443              		.loc 1 820 6 is_stmt 0 view .LVU439
 1444 0096 BCF1000F 		cmp	ip, #0
 1445 009a 1ADB     		blt	.L122
 821:Src/BLDC_controller.c ****     q0 = -1;
 822:Src/BLDC_controller.c ****   } else {
 823:Src/BLDC_controller.c ****     q0 = (q0 > 0);
 1446              		.loc 1 823 5 is_stmt 1 view .LVU440
 1447              		.loc 1 823 14 is_stmt 0 view .LVU441
 1448 009c BCF1000F 		cmp	ip, #0
 1449 00a0 D4BF     		ite	le
 1450 00a2 0022     		movle	r2, #0
 1451 00a4 0122     		movgt	r2, #1
 1452              	.LVL129:
 1453              	.L112:
 824:Src/BLDC_controller.c ****   }
 825:Src/BLDC_controller.c **** 
 826:Src/BLDC_controller.c ****   /* End of Signum: '<S66>/SignDeltaU2' */
 827:Src/BLDC_controller.c **** 
 828:Src/BLDC_controller.c ****   /* Signum: '<S66>/SignDeltaU3' incorporates:
 829:Src/BLDC_controller.c ****    *  Sum: '<S65>/Sum1'
 830:Src/BLDC_controller.c ****    */
 831:Src/BLDC_controller.c ****   if ((int16_T)tmp < 0) {
 1454              		.loc 1 831 3 is_stmt 1 view .LVU442
 1455              		.loc 1 831 6 is_stmt 0 view .LVU443
 1456 00a6 002B     		cmp	r3, #0
 1457 00a8 16DB     		blt	.L123
 832:Src/BLDC_controller.c ****     tmp_0 = -1;
 833:Src/BLDC_controller.c ****   } else {
 834:Src/BLDC_controller.c ****     tmp_0 = (int16_T)((int16_T)tmp > 0);
 1458              		.loc 1 834 5 is_stmt 1 view .LVU444
 1459              		.loc 1 834 11 is_stmt 0 view .LVU445
 1460 00aa 002B     		cmp	r3, #0
 1461 00ac D4BF     		ite	le
 1462 00ae 0021     		movle	r1, #0
 1463 00b0 0121     		movgt	r1, #1
 1464              	.LVL130:
 1465              	.L113:
 835:Src/BLDC_controller.c ****   }
 836:Src/BLDC_controller.c **** 
 837:Src/BLDC_controller.c ****   /* End of Signum: '<S66>/SignDeltaU3' */
 838:Src/BLDC_controller.c **** 
 839:Src/BLDC_controller.c ****   /* Update for UnitDelay: '<S65>/UnitDelay1' incorporates:
ARM GAS  /tmp/cccGHnrd.s 			page 42


 840:Src/BLDC_controller.c ****    *  DataTypeConversion: '<S66>/DataTypeConv4'
 841:Src/BLDC_controller.c ****    *  Logic: '<S65>/AND1'
 842:Src/BLDC_controller.c ****    *  Logic: '<S66>/AND1'
 843:Src/BLDC_controller.c ****    *  RelationalOperator: '<S66>/Equal1'
 844:Src/BLDC_controller.c ****    */
 845:Src/BLDC_controller.c ****   localDW->UnitDelay1_DSTATE = ((q0 == tmp_0) && (rtb_LowerRelop1_l ||
 1466              		.loc 1 845 3 is_stmt 1 view .LVU446
 1467              		.loc 1 845 47 is_stmt 0 view .LVU447
 1468 00b2 9142     		cmp	r1, r2
 1469 00b4 13D0     		beq	.L129
 1470              		.loc 1 845 47 discriminator 6 view .LVU448
 1471 00b6 0023     		movs	r3, #0
 1472              	.LVL131:
 1473              	.L114:
 1474              		.loc 1 845 30 discriminator 8 view .LVU449
 1475 00b8 6371     		strb	r3, [r4, #5]
 846:Src/BLDC_controller.c ****     rtb_UpperRelop_l));
 847:Src/BLDC_controller.c **** 
 848:Src/BLDC_controller.c ****   /* Update for Delay: '<S67>/Resettable Delay' */
 849:Src/BLDC_controller.c ****   localDW->icLoad = 0U;
 1476              		.loc 1 849 3 is_stmt 1 view .LVU450
 1477              		.loc 1 849 19 is_stmt 0 view .LVU451
 1478 00ba 0023     		movs	r3, #0
 1479 00bc 2371     		strb	r3, [r4, #4]
 850:Src/BLDC_controller.c ****   localDW->ResettableDelay_DSTATE = rtb_Sum1_ni;
 1480              		.loc 1 850 3 is_stmt 1 view .LVU452
 1481              		.loc 1 850 35 is_stmt 0 view .LVU453
 1482 00be 2560     		str	r5, [r4]
 851:Src/BLDC_controller.c **** }
 1483              		.loc 1 851 1 view .LVU454
 1484 00c0 70BD     		pop	{r4, r5, r6, pc}
 1485              	.LVL132:
 1486              	.L109:
 808:Src/BLDC_controller.c ****     /* Switch: '<S68>/Switch3' */
 1487              		.loc 1 808 10 is_stmt 1 view .LVU455
 808:Src/BLDC_controller.c ****     /* Switch: '<S68>/Switch3' */
 1488              		.loc 1 808 13 is_stmt 0 view .LVU456
 1489 00c2 B342     		cmp	r3, r6
 1490 00c4 02DA     		bge	.L111
 810:Src/BLDC_controller.c ****   } else {
 1491              		.loc 1 810 5 is_stmt 1 view .LVU457
 810:Src/BLDC_controller.c ****   } else {
 1492              		.loc 1 810 14 is_stmt 0 view .LVU458
 1493 00c6 079A     		ldr	r2, [sp, #28]
 1494 00c8 1680     		strh	r6, [r2]	@ movhi
 1495 00ca E4E7     		b	.L110
 1496              	.L111:
 812:Src/BLDC_controller.c ****   }
 1497              		.loc 1 812 5 is_stmt 1 view .LVU459
 812:Src/BLDC_controller.c ****   }
 1498              		.loc 1 812 14 is_stmt 0 view .LVU460
 1499 00cc 079A     		ldr	r2, [sp, #28]
 1500 00ce 1380     		strh	r3, [r2]	@ movhi
 1501 00d0 E1E7     		b	.L110
 1502              	.L122:
 821:Src/BLDC_controller.c ****   } else {
 1503              		.loc 1 821 8 view .LVU461
ARM GAS  /tmp/cccGHnrd.s 			page 43


 1504 00d2 4FF0FF32 		mov	r2, #-1
 1505 00d6 E6E7     		b	.L112
 1506              	.LVL133:
 1507              	.L123:
 832:Src/BLDC_controller.c ****   } else {
 1508              		.loc 1 832 11 view .LVU462
 1509 00d8 4FF0FF31 		mov	r1, #-1
 1510 00dc E9E7     		b	.L113
 1511              	.LVL134:
 1512              	.L129:
 845:Src/BLDC_controller.c ****     rtb_UpperRelop_l));
 1513              		.loc 1 845 47 discriminator 1 view .LVU463
 1514 00de 7345     		cmp	r3, lr
 1515 00e0 03DC     		bgt	.L125
 845:Src/BLDC_controller.c ****     rtb_UpperRelop_l));
 1516              		.loc 1 845 69 discriminator 4 view .LVU464
 1517 00e2 B342     		cmp	r3, r6
 1518 00e4 03DB     		blt	.L126
 845:Src/BLDC_controller.c ****     rtb_UpperRelop_l));
 1519              		.loc 1 845 47 discriminator 6 view .LVU465
 1520 00e6 0023     		movs	r3, #0
 1521              	.LVL135:
 845:Src/BLDC_controller.c ****     rtb_UpperRelop_l));
 1522              		.loc 1 845 47 discriminator 6 view .LVU466
 1523 00e8 E6E7     		b	.L114
 1524              	.LVL136:
 1525              	.L125:
 845:Src/BLDC_controller.c ****     rtb_UpperRelop_l));
 1526              		.loc 1 845 47 discriminator 5 view .LVU467
 1527 00ea 0123     		movs	r3, #1
 1528              	.LVL137:
 845:Src/BLDC_controller.c ****     rtb_UpperRelop_l));
 1529              		.loc 1 845 47 discriminator 5 view .LVU468
 1530 00ec E4E7     		b	.L114
 1531              	.LVL138:
 1532              	.L126:
 845:Src/BLDC_controller.c ****     rtb_UpperRelop_l));
 1533              		.loc 1 845 47 discriminator 5 view .LVU469
 1534 00ee 0123     		movs	r3, #1
 1535              	.LVL139:
 845:Src/BLDC_controller.c ****     rtb_UpperRelop_l));
 1536              		.loc 1 845 47 discriminator 5 view .LVU470
 1537 00f0 E2E7     		b	.L114
 1538              	.L131:
 1539 00f2 00BF     		.align	2
 1540              	.L130:
 1541 00f4 0080FFFF 		.word	-32768
 1542              		.cfi_endproc
 1543              	.LFE20:
 1545              		.section	.text.PI_clamp_fixdt_f_Init,"ax",%progbits
 1546              		.align	1
 1547              		.global	PI_clamp_fixdt_f_Init
 1548              		.syntax unified
 1549              		.thumb
 1550              		.thumb_func
 1552              	PI_clamp_fixdt_f_Init:
 1553              	.LVL140:
ARM GAS  /tmp/cccGHnrd.s 			page 44


 1554              	.LFB21:
 852:Src/BLDC_controller.c **** 
 853:Src/BLDC_controller.c **** /* System initialize for atomic system: '<S62>/PI_clamp_fixdt' */
 854:Src/BLDC_controller.c **** void PI_clamp_fixdt_f_Init(DW_PI_clamp_fixdt_g *localDW)
 855:Src/BLDC_controller.c **** {
 1555              		.loc 1 855 1 is_stmt 1 view -0
 1556              		.cfi_startproc
 1557              		@ args = 0, pretend = 0, frame = 0
 1558              		@ frame_needed = 0, uses_anonymous_args = 0
 1559              		@ link register save eliminated.
 856:Src/BLDC_controller.c ****   /* InitializeConditions for Delay: '<S72>/Resettable Delay' */
 857:Src/BLDC_controller.c ****   localDW->icLoad = 1U;
 1560              		.loc 1 857 3 view .LVU472
 1561              		.loc 1 857 19 is_stmt 0 view .LVU473
 1562 0000 0123     		movs	r3, #1
 1563 0002 8370     		strb	r3, [r0, #2]
 858:Src/BLDC_controller.c **** }
 1564              		.loc 1 858 1 view .LVU474
 1565 0004 7047     		bx	lr
 1566              		.cfi_endproc
 1567              	.LFE21:
 1569              		.section	.text.PI_clamp_fixdt_g_Reset,"ax",%progbits
 1570              		.align	1
 1571              		.global	PI_clamp_fixdt_g_Reset
 1572              		.syntax unified
 1573              		.thumb
 1574              		.thumb_func
 1576              	PI_clamp_fixdt_g_Reset:
 1577              	.LVL141:
 1578              	.LFB22:
 859:Src/BLDC_controller.c **** 
 860:Src/BLDC_controller.c **** /* System reset for atomic system: '<S62>/PI_clamp_fixdt' */
 861:Src/BLDC_controller.c **** void PI_clamp_fixdt_g_Reset(DW_PI_clamp_fixdt_g *localDW)
 862:Src/BLDC_controller.c **** {
 1579              		.loc 1 862 1 is_stmt 1 view -0
 1580              		.cfi_startproc
 1581              		@ args = 0, pretend = 0, frame = 0
 1582              		@ frame_needed = 0, uses_anonymous_args = 0
 1583              		@ link register save eliminated.
 863:Src/BLDC_controller.c ****   /* InitializeConditions for UnitDelay: '<S69>/UnitDelay1' */
 864:Src/BLDC_controller.c ****   localDW->UnitDelay1_DSTATE = false;
 1584              		.loc 1 864 3 view .LVU476
 1585              		.loc 1 864 30 is_stmt 0 view .LVU477
 1586 0000 0023     		movs	r3, #0
 1587 0002 C370     		strb	r3, [r0, #3]
 865:Src/BLDC_controller.c **** 
 866:Src/BLDC_controller.c ****   /* InitializeConditions for Delay: '<S72>/Resettable Delay' */
 867:Src/BLDC_controller.c ****   localDW->icLoad = 1U;
 1588              		.loc 1 867 3 is_stmt 1 view .LVU478
 1589              		.loc 1 867 19 is_stmt 0 view .LVU479
 1590 0004 0123     		movs	r3, #1
 1591 0006 8370     		strb	r3, [r0, #2]
 868:Src/BLDC_controller.c **** }
 1592              		.loc 1 868 1 view .LVU480
 1593 0008 7047     		bx	lr
 1594              		.cfi_endproc
 1595              	.LFE22:
ARM GAS  /tmp/cccGHnrd.s 			page 45


 1597              		.section	.text.PI_clamp_fixdt_k,"ax",%progbits
 1598              		.align	1
 1599              		.global	PI_clamp_fixdt_k
 1600              		.syntax unified
 1601              		.thumb
 1602              		.thumb_func
 1604              	PI_clamp_fixdt_k:
 1605              	.LVL142:
 1606              	.LFB23:
 869:Src/BLDC_controller.c **** 
 870:Src/BLDC_controller.c **** /* Output and update for atomic system: '<S62>/PI_clamp_fixdt' */
 871:Src/BLDC_controller.c **** void PI_clamp_fixdt_k(int16_T rtu_err, uint16_T rtu_P, uint16_T rtu_I, int16_T
 872:Src/BLDC_controller.c ****                       rtu_init, int16_T rtu_satMax, int16_T rtu_satMin, int32_T
 873:Src/BLDC_controller.c ****                       rtu_ext_limProt, int16_T *rty_out, DW_PI_clamp_fixdt_g
 874:Src/BLDC_controller.c ****                       *localDW)
 875:Src/BLDC_controller.c **** {
 1607              		.loc 1 875 1 is_stmt 1 view -0
 1608              		.cfi_startproc
 1609              		@ args = 20, pretend = 0, frame = 0
 1610              		@ frame_needed = 0, uses_anonymous_args = 0
 1611              		.loc 1 875 1 is_stmt 0 view .LVU482
 1612 0000 70B5     		push	{r4, r5, r6, lr}
 1613              	.LCFI13:
 1614              		.cfi_def_cfa_offset 16
 1615              		.cfi_offset 4, -16
 1616              		.cfi_offset 5, -12
 1617              		.cfi_offset 6, -8
 1618              		.cfi_offset 14, -4
 1619 0002 BDF910E0 		ldrsh	lr, [sp, #16]
 1620 0006 BDF91450 		ldrsh	r5, [sp, #20]
 1621 000a 069E     		ldr	r6, [sp, #24]
 1622 000c 089C     		ldr	r4, [sp, #32]
 876:Src/BLDC_controller.c ****   boolean_T rtb_LowerRelop1_i3;
 1623              		.loc 1 876 3 is_stmt 1 view .LVU483
 877:Src/BLDC_controller.c ****   boolean_T rtb_UpperRelop_i;
 1624              		.loc 1 877 3 view .LVU484
 878:Src/BLDC_controller.c ****   int16_T rtb_Sum1_bm;
 1625              		.loc 1 878 3 view .LVU485
 879:Src/BLDC_controller.c ****   int16_T tmp;
 1626              		.loc 1 879 3 view .LVU486
 880:Src/BLDC_controller.c ****   int32_T tmp_0;
 1627              		.loc 1 880 3 view .LVU487
 881:Src/BLDC_controller.c ****   int32_T q0;
 1628              		.loc 1 881 3 view .LVU488
 882:Src/BLDC_controller.c **** 
 883:Src/BLDC_controller.c ****   /* Sum: '<S69>/Sum2' incorporates:
 884:Src/BLDC_controller.c ****    *  Product: '<S69>/Divide2'
 885:Src/BLDC_controller.c ****    */
 886:Src/BLDC_controller.c ****   q0 = rtu_err * rtu_I;
 1629              		.loc 1 886 3 view .LVU489
 1630              		.loc 1 886 6 is_stmt 0 view .LVU490
 1631 000e 00FB02F2 		mul	r2, r0, r2
 1632              	.LVL143:
 887:Src/BLDC_controller.c ****   if ((q0 < 0) && (rtu_ext_limProt < MIN_int32_T - q0)) {
 1633              		.loc 1 887 3 is_stmt 1 view .LVU491
 1634              		.loc 1 887 6 is_stmt 0 view .LVU492
 1635 0012 002A     		cmp	r2, #0
ARM GAS  /tmp/cccGHnrd.s 			page 46


 1636 0014 0ADB     		blt	.L163
 888:Src/BLDC_controller.c ****     q0 = MIN_int32_T;
 889:Src/BLDC_controller.c ****   } else if ((q0 > 0) && (rtu_ext_limProt > MAX_int32_T - q0)) {
 1637              		.loc 1 889 10 is_stmt 1 view .LVU493
 1638              		.loc 1 889 13 is_stmt 0 view .LVU494
 1639 0016 002A     		cmp	r2, #0
 1640 0018 0CDD     		ble	.L137
 1641              		.loc 1 889 57 discriminator 1 view .LVU495
 1642 001a 6FF0004C 		mvn	ip, #-2147483648
 1643 001e ACEB020C 		sub	ip, ip, r2
 1644              		.loc 1 889 23 discriminator 1 view .LVU496
 1645 0022 B445     		cmp	ip, r6
 1646 0024 06DA     		bge	.L137
 890:Src/BLDC_controller.c ****     q0 = MAX_int32_T;
 1647              		.loc 1 890 8 view .LVU497
 1648 0026 6FF0004C 		mvn	ip, #-2147483648
 1649 002a 05E0     		b	.L136
 1650              	.L163:
 887:Src/BLDC_controller.c ****   if ((q0 < 0) && (rtu_ext_limProt < MIN_int32_T - q0)) {
 1651              		.loc 1 887 50 discriminator 1 view .LVU498
 1652 002c C2F1004C 		rsb	ip, r2, #-2147483648
 887:Src/BLDC_controller.c ****   if ((q0 < 0) && (rtu_ext_limProt < MIN_int32_T - q0)) {
 1653              		.loc 1 887 16 discriminator 1 view .LVU499
 1654 0030 B445     		cmp	ip, r6
 1655 0032 0DDC     		bgt	.L149
 1656              	.L137:
 891:Src/BLDC_controller.c ****   } else {
 892:Src/BLDC_controller.c ****     q0 += rtu_ext_limProt;
 1657              		.loc 1 892 5 is_stmt 1 view .LVU500
 1658              		.loc 1 892 8 is_stmt 0 view .LVU501
 1659 0034 02EB060C 		add	ip, r2, r6
 1660              	.LVL144:
 1661              	.L136:
 893:Src/BLDC_controller.c ****   }
 894:Src/BLDC_controller.c **** 
 895:Src/BLDC_controller.c ****   /* Delay: '<S72>/Resettable Delay' */
 896:Src/BLDC_controller.c ****   if (localDW->icLoad != 0) {
 1662              		.loc 1 896 3 is_stmt 1 view .LVU502
 1663              		.loc 1 896 14 is_stmt 0 view .LVU503
 1664 0038 A278     		ldrb	r2, [r4, #2]	@ zero_extendqisi2
 1665              		.loc 1 896 6 view .LVU504
 1666 003a 02B1     		cbz	r2, .L138
 897:Src/BLDC_controller.c ****     localDW->ResettableDelay_DSTATE = rtu_init;
 1667              		.loc 1 897 5 is_stmt 1 view .LVU505
 1668              		.loc 1 897 37 is_stmt 0 view .LVU506
 1669 003c 2380     		strh	r3, [r4]	@ movhi
 1670              	.L138:
 898:Src/BLDC_controller.c ****   }
 899:Src/BLDC_controller.c **** 
 900:Src/BLDC_controller.c ****   /* Switch: '<S69>/Switch1' incorporates:
 901:Src/BLDC_controller.c ****    *  Constant: '<S69>/Constant'
 902:Src/BLDC_controller.c ****    *  Sum: '<S69>/Sum2'
 903:Src/BLDC_controller.c ****    *  UnitDelay: '<S69>/UnitDelay1'
 904:Src/BLDC_controller.c ****    */
 905:Src/BLDC_controller.c ****   if (localDW->UnitDelay1_DSTATE) {
 1671              		.loc 1 905 3 is_stmt 1 view .LVU507
 1672              		.loc 1 905 14 is_stmt 0 view .LVU508
ARM GAS  /tmp/cccGHnrd.s 			page 47


 1673 003e E378     		ldrb	r3, [r4, #3]	@ zero_extendqisi2
 1674              	.LVL145:
 1675              		.loc 1 905 6 view .LVU509
 1676 0040 63B9     		cbnz	r3, .L151
 906:Src/BLDC_controller.c ****     tmp = 0;
 907:Src/BLDC_controller.c ****   } else {
 908:Src/BLDC_controller.c ****     tmp = (int16_T)(((q0 < 0 ? 65535 : 0) + q0) >> 16);
 1677              		.loc 1 908 5 is_stmt 1 view .LVU510
 1678              		.loc 1 908 38 is_stmt 0 view .LVU511
 1679 0042 BCF1000F 		cmp	ip, #0
 1680 0046 06DB     		blt	.L164
 1681              		.loc 1 908 38 discriminator 2 view .LVU512
 1682 0048 0023     		movs	r3, #0
 1683              	.L140:
 1684              		.loc 1 908 43 discriminator 4 view .LVU513
 1685 004a 6344     		add	r3, r3, ip
 1686              		.loc 1 908 9 discriminator 4 view .LVU514
 1687 004c 1B14     		asrs	r3, r3, #16
 1688              	.LVL146:
 1689              		.loc 1 908 9 discriminator 4 view .LVU515
 1690 004e 06E0     		b	.L139
 1691              	.LVL147:
 1692              	.L149:
 888:Src/BLDC_controller.c ****   } else if ((q0 > 0) && (rtu_ext_limProt > MAX_int32_T - q0)) {
 1693              		.loc 1 888 8 view .LVU516
 1694 0050 4FF0004C 		mov	ip, #-2147483648
 1695 0054 F0E7     		b	.L136
 1696              	.LVL148:
 1697              	.L164:
 1698              		.loc 1 908 38 discriminator 1 view .LVU517
 1699 0056 4FF6FF73 		movw	r3, #65535
 1700 005a F6E7     		b	.L140
 1701              	.L151:
 906:Src/BLDC_controller.c ****     tmp = 0;
 1702              		.loc 1 906 9 view .LVU518
 1703 005c 0023     		movs	r3, #0
 1704              	.L139:
 1705              	.LVL149:
 909:Src/BLDC_controller.c ****   }
 910:Src/BLDC_controller.c **** 
 911:Src/BLDC_controller.c ****   /* End of Switch: '<S69>/Switch1' */
 912:Src/BLDC_controller.c **** 
 913:Src/BLDC_controller.c ****   /* Sum: '<S72>/Sum1' incorporates:
 914:Src/BLDC_controller.c ****    *  Delay: '<S72>/Resettable Delay'
 915:Src/BLDC_controller.c ****    */
 916:Src/BLDC_controller.c ****   rtb_Sum1_bm = (int16_T)(tmp + localDW->ResettableDelay_DSTATE);
 1706              		.loc 1 916 3 is_stmt 1 view .LVU519
 1707              		.loc 1 916 40 is_stmt 0 view .LVU520
 1708 005e 2288     		ldrh	r2, [r4]
 1709              		.loc 1 916 31 view .LVU521
 1710 0060 1A44     		add	r2, r2, r3
 1711              		.loc 1 916 15 view .LVU522
 1712 0062 12B2     		sxth	r2, r2
 1713              	.LVL150:
 917:Src/BLDC_controller.c **** 
 918:Src/BLDC_controller.c ****   /* Product: '<S69>/Divide5' */
 919:Src/BLDC_controller.c ****   tmp_0 = (rtu_err * rtu_P) >> 11;
ARM GAS  /tmp/cccGHnrd.s 			page 48


 1714              		.loc 1 919 3 is_stmt 1 view .LVU523
 1715              		.loc 1 919 20 is_stmt 0 view .LVU524
 1716 0064 00FB01F1 		mul	r1, r0, r1
 1717              	.LVL151:
 1718              		.loc 1 919 9 view .LVU525
 1719 0068 CB12     		asrs	r3, r1, #11
 1720              	.LVL152:
 920:Src/BLDC_controller.c ****   if (tmp_0 > 32767) {
 1721              		.loc 1 920 3 is_stmt 1 view .LVU526
 1722              		.loc 1 920 6 is_stmt 0 view .LVU527
 1723 006a B1F1806F 		cmp	r1, #67108864
 1724 006e 04DA     		bge	.L153
 921:Src/BLDC_controller.c ****     tmp_0 = 32767;
 922:Src/BLDC_controller.c ****   } else {
 923:Src/BLDC_controller.c ****     if (tmp_0 < -32768) {
 1725              		.loc 1 923 5 is_stmt 1 view .LVU528
 1726              		.loc 1 923 8 is_stmt 0 view .LVU529
 1727 0070 13F5004F 		cmn	r3, #32768
 1728 0074 03DA     		bge	.L141
 924:Src/BLDC_controller.c ****       tmp_0 = -32768;
 1729              		.loc 1 924 13 view .LVU530
 1730 0076 234B     		ldr	r3, .L166
 1731              	.LVL153:
 1732              		.loc 1 924 13 view .LVU531
 1733 0078 01E0     		b	.L141
 1734              	.LVL154:
 1735              	.L153:
 921:Src/BLDC_controller.c ****     tmp_0 = 32767;
 1736              		.loc 1 921 11 view .LVU532
 1737 007a 47F6FF73 		movw	r3, #32767
 1738              	.LVL155:
 1739              	.L141:
 925:Src/BLDC_controller.c ****     }
 926:Src/BLDC_controller.c ****   }
 927:Src/BLDC_controller.c **** 
 928:Src/BLDC_controller.c ****   /* Sum: '<S69>/Sum1' incorporates:
 929:Src/BLDC_controller.c ****    *  Product: '<S69>/Divide5'
 930:Src/BLDC_controller.c ****    */
 931:Src/BLDC_controller.c ****   tmp_0 = ((rtb_Sum1_bm << 1) + tmp_0) >> 1;
 1740              		.loc 1 931 3 is_stmt 1 view .LVU533
 1741              		.loc 1 931 31 is_stmt 0 view .LVU534
 1742 007e 03EB4201 		add	r1, r3, r2, lsl #1
 1743              		.loc 1 931 9 view .LVU535
 1744 0082 4B10     		asrs	r3, r1, #1
 1745              	.LVL156:
 932:Src/BLDC_controller.c ****   if (tmp_0 > 32767) {
 1746              		.loc 1 932 3 is_stmt 1 view .LVU536
 1747              		.loc 1 932 6 is_stmt 0 view .LVU537
 1748 0084 B1F5803F 		cmp	r1, #65536
 1749 0088 04DA     		bge	.L155
 933:Src/BLDC_controller.c ****     tmp_0 = 32767;
 934:Src/BLDC_controller.c ****   } else {
 935:Src/BLDC_controller.c ****     if (tmp_0 < -32768) {
 1750              		.loc 1 935 5 is_stmt 1 view .LVU538
 1751              		.loc 1 935 8 is_stmt 0 view .LVU539
 1752 008a 13F5004F 		cmn	r3, #32768
 1753 008e 03DA     		bge	.L142
ARM GAS  /tmp/cccGHnrd.s 			page 49


 936:Src/BLDC_controller.c ****       tmp_0 = -32768;
 1754              		.loc 1 936 13 view .LVU540
 1755 0090 1C4B     		ldr	r3, .L166
 1756              	.LVL157:
 1757              		.loc 1 936 13 view .LVU541
 1758 0092 01E0     		b	.L142
 1759              	.LVL158:
 1760              	.L155:
 933:Src/BLDC_controller.c ****     tmp_0 = 32767;
 1761              		.loc 1 933 11 view .LVU542
 1762 0094 47F6FF73 		movw	r3, #32767
 1763              	.LVL159:
 1764              	.L142:
 937:Src/BLDC_controller.c ****     }
 938:Src/BLDC_controller.c ****   }
 939:Src/BLDC_controller.c **** 
 940:Src/BLDC_controller.c ****   /* RelationalOperator: '<S73>/LowerRelop1' incorporates:
 941:Src/BLDC_controller.c ****    *  Sum: '<S69>/Sum1'
 942:Src/BLDC_controller.c ****    */
 943:Src/BLDC_controller.c ****   rtb_LowerRelop1_i3 = ((int16_T)tmp_0 > rtu_satMax);
 1765              		.loc 1 943 3 is_stmt 1 view .LVU543
 1766              		.loc 1 943 25 is_stmt 0 view .LVU544
 1767 0098 1BB2     		sxth	r3, r3
 1768              	.LVL160:
 944:Src/BLDC_controller.c **** 
 945:Src/BLDC_controller.c ****   /* RelationalOperator: '<S73>/UpperRelop' incorporates:
 946:Src/BLDC_controller.c ****    *  Sum: '<S69>/Sum1'
 947:Src/BLDC_controller.c ****    */
 948:Src/BLDC_controller.c ****   rtb_UpperRelop_i = ((int16_T)tmp_0 < rtu_satMin);
 1769              		.loc 1 948 3 is_stmt 1 view .LVU545
 949:Src/BLDC_controller.c **** 
 950:Src/BLDC_controller.c ****   /* Switch: '<S73>/Switch1' incorporates:
 951:Src/BLDC_controller.c ****    *  Sum: '<S69>/Sum1'
 952:Src/BLDC_controller.c ****    *  Switch: '<S73>/Switch3'
 953:Src/BLDC_controller.c ****    */
 954:Src/BLDC_controller.c ****   if (rtb_LowerRelop1_i3) {
 1770              		.loc 1 954 3 view .LVU546
 1771              		.loc 1 954 6 is_stmt 0 view .LVU547
 1772 009a 7345     		cmp	r3, lr
 1773 009c 1ADD     		ble	.L143
 955:Src/BLDC_controller.c ****     *rty_out = rtu_satMax;
 1774              		.loc 1 955 5 is_stmt 1 view .LVU548
 1775              		.loc 1 955 14 is_stmt 0 view .LVU549
 1776 009e 0799     		ldr	r1, [sp, #28]
 1777 00a0 A1F800E0 		strh	lr, [r1]	@ movhi
 1778              	.L144:
 956:Src/BLDC_controller.c ****   } else if (rtb_UpperRelop_i) {
 957:Src/BLDC_controller.c ****     /* Switch: '<S73>/Switch3' */
 958:Src/BLDC_controller.c ****     *rty_out = rtu_satMin;
 959:Src/BLDC_controller.c ****   } else {
 960:Src/BLDC_controller.c ****     *rty_out = (int16_T)tmp_0;
 961:Src/BLDC_controller.c ****   }
 962:Src/BLDC_controller.c **** 
 963:Src/BLDC_controller.c ****   /* End of Switch: '<S73>/Switch1' */
 964:Src/BLDC_controller.c **** 
 965:Src/BLDC_controller.c ****   /* Signum: '<S71>/SignDeltaU2' incorporates:
 966:Src/BLDC_controller.c ****    *  Sum: '<S69>/Sum2'
ARM GAS  /tmp/cccGHnrd.s 			page 50


 967:Src/BLDC_controller.c ****    */
 968:Src/BLDC_controller.c ****   if (q0 < 0) {
 1779              		.loc 1 968 3 is_stmt 1 view .LVU550
 1780              		.loc 1 968 6 is_stmt 0 view .LVU551
 1781 00a4 BCF1000F 		cmp	ip, #0
 1782 00a8 1CDB     		blt	.L157
 969:Src/BLDC_controller.c ****     q0 = -1;
 970:Src/BLDC_controller.c ****   } else {
 971:Src/BLDC_controller.c ****     q0 = (q0 > 0);
 1783              		.loc 1 971 5 is_stmt 1 view .LVU552
 1784              		.loc 1 971 14 is_stmt 0 view .LVU553
 1785 00aa BCF1000F 		cmp	ip, #0
 1786 00ae D4BF     		ite	le
 1787 00b0 4FF0000C 		movle	ip, #0
 1788              	.LVL161:
 1789              		.loc 1 971 14 view .LVU554
 1790 00b4 4FF0010C 		movgt	ip, #1
 1791              	.LVL162:
 1792              	.L146:
 972:Src/BLDC_controller.c ****   }
 973:Src/BLDC_controller.c **** 
 974:Src/BLDC_controller.c ****   /* End of Signum: '<S71>/SignDeltaU2' */
 975:Src/BLDC_controller.c **** 
 976:Src/BLDC_controller.c ****   /* Signum: '<S71>/SignDeltaU3' incorporates:
 977:Src/BLDC_controller.c ****    *  Sum: '<S69>/Sum1'
 978:Src/BLDC_controller.c ****    */
 979:Src/BLDC_controller.c ****   if ((int16_T)tmp_0 < 0) {
 1793              		.loc 1 979 3 is_stmt 1 view .LVU555
 1794              		.loc 1 979 6 is_stmt 0 view .LVU556
 1795 00b8 002B     		cmp	r3, #0
 1796 00ba 16DB     		blt	.L158
 980:Src/BLDC_controller.c ****     tmp = -1;
 981:Src/BLDC_controller.c ****   } else {
 982:Src/BLDC_controller.c ****     tmp = (int16_T)((int16_T)tmp_0 > 0);
 1797              		.loc 1 982 5 is_stmt 1 view .LVU557
 1798              		.loc 1 982 9 is_stmt 0 view .LVU558
 1799 00bc 002B     		cmp	r3, #0
 1800 00be D4BF     		ite	le
 1801 00c0 0021     		movle	r1, #0
 1802 00c2 0121     		movgt	r1, #1
 1803              	.LVL163:
 1804              	.L147:
 983:Src/BLDC_controller.c ****   }
 984:Src/BLDC_controller.c **** 
 985:Src/BLDC_controller.c ****   /* End of Signum: '<S71>/SignDeltaU3' */
 986:Src/BLDC_controller.c **** 
 987:Src/BLDC_controller.c ****   /* Update for UnitDelay: '<S69>/UnitDelay1' incorporates:
 988:Src/BLDC_controller.c ****    *  DataTypeConversion: '<S71>/DataTypeConv4'
 989:Src/BLDC_controller.c ****    *  Logic: '<S69>/AND1'
 990:Src/BLDC_controller.c ****    *  Logic: '<S71>/AND1'
 991:Src/BLDC_controller.c ****    *  RelationalOperator: '<S71>/Equal1'
 992:Src/BLDC_controller.c ****    */
 993:Src/BLDC_controller.c ****   localDW->UnitDelay1_DSTATE = ((q0 == tmp) && (rtb_LowerRelop1_i3 ||
 1805              		.loc 1 993 3 is_stmt 1 view .LVU559
 1806              		.loc 1 993 45 is_stmt 0 view .LVU560
 1807 00c4 6145     		cmp	r1, ip
 1808 00c6 13D0     		beq	.L165
ARM GAS  /tmp/cccGHnrd.s 			page 51


 1809              		.loc 1 993 45 discriminator 6 view .LVU561
 1810 00c8 0023     		movs	r3, #0
 1811              	.LVL164:
 1812              	.L148:
 1813              		.loc 1 993 30 discriminator 8 view .LVU562
 1814 00ca E370     		strb	r3, [r4, #3]
 994:Src/BLDC_controller.c ****     rtb_UpperRelop_i));
 995:Src/BLDC_controller.c **** 
 996:Src/BLDC_controller.c ****   /* Update for Delay: '<S72>/Resettable Delay' */
 997:Src/BLDC_controller.c ****   localDW->icLoad = 0U;
 1815              		.loc 1 997 3 is_stmt 1 view .LVU563
 1816              		.loc 1 997 19 is_stmt 0 view .LVU564
 1817 00cc 0023     		movs	r3, #0
 1818 00ce A370     		strb	r3, [r4, #2]
 998:Src/BLDC_controller.c ****   localDW->ResettableDelay_DSTATE = rtb_Sum1_bm;
 1819              		.loc 1 998 3 is_stmt 1 view .LVU565
 1820              		.loc 1 998 35 is_stmt 0 view .LVU566
 1821 00d0 2280     		strh	r2, [r4]	@ movhi
 999:Src/BLDC_controller.c **** }
 1822              		.loc 1 999 1 view .LVU567
 1823 00d2 70BD     		pop	{r4, r5, r6, pc}
 1824              	.LVL165:
 1825              	.L143:
 956:Src/BLDC_controller.c ****     /* Switch: '<S73>/Switch3' */
 1826              		.loc 1 956 10 is_stmt 1 view .LVU568
 956:Src/BLDC_controller.c ****     /* Switch: '<S73>/Switch3' */
 1827              		.loc 1 956 13 is_stmt 0 view .LVU569
 1828 00d4 AB42     		cmp	r3, r5
 1829 00d6 02DA     		bge	.L145
 958:Src/BLDC_controller.c ****   } else {
 1830              		.loc 1 958 5 is_stmt 1 view .LVU570
 958:Src/BLDC_controller.c ****   } else {
 1831              		.loc 1 958 14 is_stmt 0 view .LVU571
 1832 00d8 0799     		ldr	r1, [sp, #28]
 1833 00da 0D80     		strh	r5, [r1]	@ movhi
 1834 00dc E2E7     		b	.L144
 1835              	.L145:
 960:Src/BLDC_controller.c ****   }
 1836              		.loc 1 960 5 is_stmt 1 view .LVU572
 960:Src/BLDC_controller.c ****   }
 1837              		.loc 1 960 14 is_stmt 0 view .LVU573
 1838 00de 0799     		ldr	r1, [sp, #28]
 1839 00e0 0B80     		strh	r3, [r1]	@ movhi
 1840 00e2 DFE7     		b	.L144
 1841              	.L157:
 969:Src/BLDC_controller.c ****   } else {
 1842              		.loc 1 969 8 view .LVU574
 1843 00e4 4FF0FF3C 		mov	ip, #-1
 1844              	.LVL166:
 969:Src/BLDC_controller.c ****   } else {
 1845              		.loc 1 969 8 view .LVU575
 1846 00e8 E6E7     		b	.L146
 1847              	.LVL167:
 1848              	.L158:
 980:Src/BLDC_controller.c ****   } else {
 1849              		.loc 1 980 9 view .LVU576
 1850 00ea 4FF0FF31 		mov	r1, #-1
ARM GAS  /tmp/cccGHnrd.s 			page 52


 1851 00ee E9E7     		b	.L147
 1852              	.LVL168:
 1853              	.L165:
 993:Src/BLDC_controller.c ****     rtb_UpperRelop_i));
 1854              		.loc 1 993 45 discriminator 1 view .LVU577
 1855 00f0 7345     		cmp	r3, lr
 1856 00f2 03DC     		bgt	.L160
 993:Src/BLDC_controller.c ****     rtb_UpperRelop_i));
 1857              		.loc 1 993 68 discriminator 4 view .LVU578
 1858 00f4 AB42     		cmp	r3, r5
 1859 00f6 03DB     		blt	.L161
 993:Src/BLDC_controller.c ****     rtb_UpperRelop_i));
 1860              		.loc 1 993 45 discriminator 6 view .LVU579
 1861 00f8 0023     		movs	r3, #0
 1862              	.LVL169:
 993:Src/BLDC_controller.c ****     rtb_UpperRelop_i));
 1863              		.loc 1 993 45 discriminator 6 view .LVU580
 1864 00fa E6E7     		b	.L148
 1865              	.LVL170:
 1866              	.L160:
 993:Src/BLDC_controller.c ****     rtb_UpperRelop_i));
 1867              		.loc 1 993 45 discriminator 5 view .LVU581
 1868 00fc 0123     		movs	r3, #1
 1869              	.LVL171:
 993:Src/BLDC_controller.c ****     rtb_UpperRelop_i));
 1870              		.loc 1 993 45 discriminator 5 view .LVU582
 1871 00fe E4E7     		b	.L148
 1872              	.LVL172:
 1873              	.L161:
 993:Src/BLDC_controller.c ****     rtb_UpperRelop_i));
 1874              		.loc 1 993 45 discriminator 5 view .LVU583
 1875 0100 0123     		movs	r3, #1
 1876              	.LVL173:
 993:Src/BLDC_controller.c ****     rtb_UpperRelop_i));
 1877              		.loc 1 993 45 discriminator 5 view .LVU584
 1878 0102 E2E7     		b	.L148
 1879              	.L167:
 1880              		.align	2
 1881              	.L166:
 1882 0104 0080FFFF 		.word	-32768
 1883              		.cfi_endproc
 1884              	.LFE23:
 1886              		.section	.text.BLDC_controller_step,"ax",%progbits
 1887              		.align	1
 1888              		.global	BLDC_controller_step
 1889              		.syntax unified
 1890              		.thumb
 1891              		.thumb_func
 1893              	BLDC_controller_step:
 1894              	.LVL174:
 1895              	.LFB24:
1000:Src/BLDC_controller.c **** 
1001:Src/BLDC_controller.c **** /* Model step function */
1002:Src/BLDC_controller.c **** void BLDC_controller_step(RT_MODEL *const rtM)
1003:Src/BLDC_controller.c **** {
 1896              		.loc 1 1003 1 is_stmt 1 view -0
 1897              		.cfi_startproc
ARM GAS  /tmp/cccGHnrd.s 			page 53


 1898              		@ args = 0, pretend = 0, frame = 48
 1899              		@ frame_needed = 0, uses_anonymous_args = 0
 1900              		.loc 1 1003 1 is_stmt 0 view .LVU586
 1901 0000 2DE9F04F 		push	{r4, r5, r6, r7, r8, r9, r10, fp, lr}
 1902              	.LCFI14:
 1903              		.cfi_def_cfa_offset 36
 1904              		.cfi_offset 4, -36
 1905              		.cfi_offset 5, -32
 1906              		.cfi_offset 6, -28
 1907              		.cfi_offset 7, -24
 1908              		.cfi_offset 8, -20
 1909              		.cfi_offset 9, -16
 1910              		.cfi_offset 10, -12
 1911              		.cfi_offset 11, -8
 1912              		.cfi_offset 14, -4
 1913 0004 93B0     		sub	sp, sp, #76
 1914              	.LCFI15:
 1915              		.cfi_def_cfa_offset 112
1004:Src/BLDC_controller.c ****   P *rtP = ((P *) rtM->defaultParam);
 1916              		.loc 1 1004 3 is_stmt 1 view .LVU587
 1917              		.loc 1 1004 6 is_stmt 0 view .LVU588
 1918 0006 0568     		ldr	r5, [r0]
 1919              	.LVL175:
1005:Src/BLDC_controller.c ****   DW *rtDW = ((DW *) rtM->dwork);
 1920              		.loc 1 1005 3 is_stmt 1 view .LVU589
 1921              		.loc 1 1005 7 is_stmt 0 view .LVU590
 1922 0008 C468     		ldr	r4, [r0, #12]
 1923              	.LVL176:
1006:Src/BLDC_controller.c ****   ExtU *rtU = (ExtU *) rtM->inputs;
 1924              		.loc 1 1006 3 is_stmt 1 view .LVU591
 1925              		.loc 1 1006 9 is_stmt 0 view .LVU592
 1926 000a 4668     		ldr	r6, [r0, #4]
 1927              	.LVL177:
1007:Src/BLDC_controller.c ****   ExtY *rtY = (ExtY *) rtM->outputs;
 1928              		.loc 1 1007 3 is_stmt 1 view .LVU593
 1929              		.loc 1 1007 9 is_stmt 0 view .LVU594
 1930 000c 8768     		ldr	r7, [r0, #8]
 1931              	.LVL178:
1008:Src/BLDC_controller.c ****   boolean_T rtb_LogicalOperator;
 1932              		.loc 1 1008 3 is_stmt 1 view .LVU595
1009:Src/BLDC_controller.c ****   int8_T rtb_Sum2_h;
 1933              		.loc 1 1009 3 view .LVU596
1010:Src/BLDC_controller.c ****   boolean_T rtb_RelationalOperator4_d;
 1934              		.loc 1 1010 3 view .LVU597
1011:Src/BLDC_controller.c ****   boolean_T rtb_UnitDelay5_e;
 1935              		.loc 1 1011 3 view .LVU598
1012:Src/BLDC_controller.c ****   uint8_T rtb_a_elecAngle_XA_g;
 1936              		.loc 1 1012 3 view .LVU599
1013:Src/BLDC_controller.c ****   boolean_T rtb_LogicalOperator1_j;
 1937              		.loc 1 1013 3 view .LVU600
1014:Src/BLDC_controller.c ****   boolean_T rtb_LogicalOperator2_p;
 1938              		.loc 1 1014 3 view .LVU601
1015:Src/BLDC_controller.c ****   boolean_T rtb_RelationalOperator1_mv;
 1939              		.loc 1 1015 3 view .LVU602
1016:Src/BLDC_controller.c ****   int16_T rtb_Switch1_l;
 1940              		.loc 1 1016 3 view .LVU603
1017:Src/BLDC_controller.c ****   int16_T rtb_Saturation;
ARM GAS  /tmp/cccGHnrd.s 			page 54


 1941              		.loc 1 1017 3 view .LVU604
1018:Src/BLDC_controller.c ****   int16_T rtb_Saturation1;
 1942              		.loc 1 1018 3 view .LVU605
1019:Src/BLDC_controller.c ****   int32_T rtb_Sum1_jt;
 1943              		.loc 1 1019 3 view .LVU606
1020:Src/BLDC_controller.c ****   int16_T rtb_Merge_m;
 1944              		.loc 1 1020 3 view .LVU607
1021:Src/BLDC_controller.c ****   int16_T rtb_Merge1;
 1945              		.loc 1 1021 3 view .LVU608
1022:Src/BLDC_controller.c ****   uint16_T rtb_Divide14_e;
 1946              		.loc 1 1022 3 view .LVU609
1023:Src/BLDC_controller.c ****   uint16_T rtb_Divide1_f;
 1947              		.loc 1 1023 3 view .LVU610
1024:Src/BLDC_controller.c ****   int16_T rtb_TmpSignalConversionAtLow_Pa[2];
 1948              		.loc 1 1024 3 view .LVU611
1025:Src/BLDC_controller.c ****   int32_T rtb_Switch1;
 1949              		.loc 1 1025 3 view .LVU612
1026:Src/BLDC_controller.c ****   int32_T rtb_Sum1;
 1950              		.loc 1 1026 3 view .LVU613
1027:Src/BLDC_controller.c ****   int32_T rtb_Gain3;
 1951              		.loc 1 1027 3 view .LVU614
1028:Src/BLDC_controller.c ****   uint8_T Sum;
 1952              		.loc 1 1028 3 view .LVU615
1029:Src/BLDC_controller.c ****   int16_T Switch2;
 1953              		.loc 1 1029 3 view .LVU616
1030:Src/BLDC_controller.c ****   int16_T Abs5;
 1954              		.loc 1 1030 3 view .LVU617
1031:Src/BLDC_controller.c ****   int16_T DataTypeConversion2;
 1955              		.loc 1 1031 3 view .LVU618
1032:Src/BLDC_controller.c ****   int16_T tmp[4];
 1956              		.loc 1 1032 3 view .LVU619
1033:Src/BLDC_controller.c ****   int8_T UnitDelay3;
 1957              		.loc 1 1033 3 view .LVU620
1034:Src/BLDC_controller.c **** 
1035:Src/BLDC_controller.c ****   /* Outputs for Atomic SubSystem: '<Root>/BLDC_controller' */
1036:Src/BLDC_controller.c ****   /* Sum: '<S11>/Sum' incorporates:
1037:Src/BLDC_controller.c ****    *  Gain: '<S11>/g_Ha'
1038:Src/BLDC_controller.c ****    *  Gain: '<S11>/g_Hb'
1039:Src/BLDC_controller.c ****    *  Inport: '<Root>/b_hallA '
1040:Src/BLDC_controller.c ****    *  Inport: '<Root>/b_hallB'
1041:Src/BLDC_controller.c ****    *  Inport: '<Root>/b_hallC'
1042:Src/BLDC_controller.c ****    */
1043:Src/BLDC_controller.c ****   Sum = (uint8_T)((uint32_T)(uint8_T)((uint32_T)(uint8_T)(rtU->b_hallA << 2) +
 1958              		.loc 1 1043 3 view .LVU621
 1959              		.loc 1 1043 62 is_stmt 0 view .LVU622
 1960 000e 3179     		ldrb	r1, [r6, #4]	@ zero_extendqisi2
 1961              		.loc 1 1043 49 view .LVU623
 1962 0010 8A00     		lsls	r2, r1, #2
 1963 0012 D2B2     		uxtb	r2, r2
1044:Src/BLDC_controller.c ****     (uint8_T)(rtU->b_hallB << 1)) + rtU->b_hallC);
 1964              		.loc 1 1044 18 view .LVU624
 1965 0014 7379     		ldrb	r3, [r6, #5]	@ zero_extendqisi2
 1966              		.loc 1 1044 5 view .LVU625
 1967 0016 5800     		lsls	r0, r3, #1
 1968              	.LVL179:
 1969              		.loc 1 1044 5 view .LVU626
 1970 0018 C0B2     		uxtb	r0, r0
ARM GAS  /tmp/cccGHnrd.s 			page 55


1043:Src/BLDC_controller.c ****     (uint8_T)(rtU->b_hallB << 1)) + rtU->b_hallC);
 1971              		.loc 1 1043 29 view .LVU627
 1972 001a 0244     		add	r2, r2, r0
 1973 001c D2B2     		uxtb	r2, r2
 1974              		.loc 1 1044 40 view .LVU628
 1975 001e B079     		ldrb	r0, [r6, #6]	@ zero_extendqisi2
1043:Src/BLDC_controller.c ****     (uint8_T)(rtU->b_hallB << 1)) + rtU->b_hallC);
 1976              		.loc 1 1043 7 view .LVU629
 1977 0020 0244     		add	r2, r2, r0
 1978 0022 5FFA82FE 		uxtb	lr, r2
 1979 0026 CDF81CE0 		str	lr, [sp, #28]
 1980              	.LVL180:
1045:Src/BLDC_controller.c **** 
1046:Src/BLDC_controller.c ****   /* Logic: '<S10>/Logical Operator' incorporates:
1047:Src/BLDC_controller.c ****    *  Inport: '<Root>/b_hallA '
1048:Src/BLDC_controller.c ****    *  Inport: '<Root>/b_hallB'
1049:Src/BLDC_controller.c ****    *  Inport: '<Root>/b_hallC'
1050:Src/BLDC_controller.c ****    *  UnitDelay: '<S10>/UnitDelay1'
1051:Src/BLDC_controller.c ****    *  UnitDelay: '<S10>/UnitDelay2'
1052:Src/BLDC_controller.c ****    *  UnitDelay: '<S10>/UnitDelay3'
1053:Src/BLDC_controller.c ****    */
1054:Src/BLDC_controller.c ****   rtb_LogicalOperator = (boolean_T)((rtU->b_hallA != 0) ^ (rtU->b_hallB != 0) ^
 1981              		.loc 1 1054 3 is_stmt 1 view .LVU630
 1982              		.loc 1 1054 73 is_stmt 0 view .LVU631
 1983 002a 003B     		subs	r3, r3, #0
 1984 002c 18BF     		it	ne
 1985 002e 0123     		movne	r3, #1
1055:Src/BLDC_controller.c ****     (rtU->b_hallC != 0) ^ (rtDW->UnitDelay3_DSTATE_fy != 0) ^
 1986              		.loc 1 1055 32 view .LVU632
 1987 0030 94F89AC0 		ldrb	ip, [r4, #154]	@ zero_extendqisi2
1056:Src/BLDC_controller.c ****     (rtDW->UnitDelay1_DSTATE != 0)) ^ (rtDW->UnitDelay2_DSTATE_f != 0);
 1988              		.loc 1 1056 10 view .LVU633
 1989 0034 94F89B20 		ldrb	r2, [r4, #155]	@ zero_extendqisi2
 1990 0038 0029     		cmp	r1, #0
 1991 003a 18BF     		it	ne
 1992 003c 83F00103 		eorne	r3, r3, #1
 1993 0040 0028     		cmp	r0, #0
 1994 0042 18BF     		it	ne
 1995 0044 83F00103 		eorne	r3, r3, #1
 1996 0048 BCF1000F 		cmp	ip, #0
 1997 004c 18BF     		it	ne
 1998 004e 83F00103 		eorne	r3, r3, #1
 1999 0052 002A     		cmp	r2, #0
 2000 0054 18BF     		it	ne
 2001 0056 83F00103 		eorne	r3, r3, #1
 2002              		.loc 1 1056 44 view .LVU634
 2003 005a 94F89C10 		ldrb	r1, [r4, #156]	@ zero_extendqisi2
 2004              		.loc 1 1056 66 view .LVU635
 2005 005e 0039     		subs	r1, r1, #0
 2006 0060 18BF     		it	ne
 2007 0062 0121     		movne	r1, #1
1054:Src/BLDC_controller.c ****     (rtU->b_hallC != 0) ^ (rtDW->UnitDelay3_DSTATE_fy != 0) ^
 2008              		.loc 1 1054 23 view .LVU636
 2009 0064 81EA0302 		eor	r2, r1, r3
 2010              	.LVL181:
1057:Src/BLDC_controller.c **** 
1058:Src/BLDC_controller.c ****   /* If: '<S13>/If2' incorporates:
ARM GAS  /tmp/cccGHnrd.s 			page 56


1059:Src/BLDC_controller.c ****    *  If: '<S3>/If2'
1060:Src/BLDC_controller.c ****    *  Inport: '<S17>/z_counterRawPrev'
1061:Src/BLDC_controller.c ****    *  UnitDelay: '<S13>/UnitDelay3'
1062:Src/BLDC_controller.c ****    */
1063:Src/BLDC_controller.c ****   if (rtb_LogicalOperator) {
 2011              		.loc 1 1063 3 is_stmt 1 view .LVU637
 2012              		.loc 1 1063 6 is_stmt 0 view .LVU638
 2013 0068 9942     		cmp	r1, r3
 2014 006a 56D0     		beq	.L169
1064:Src/BLDC_controller.c ****     /* Outputs for IfAction SubSystem: '<S3>/F01_03_Direction_Detection' incorporates:
1065:Src/BLDC_controller.c ****      *  ActionPort: '<S12>/Action Port'
1066:Src/BLDC_controller.c ****      */
1067:Src/BLDC_controller.c ****     /* UnitDelay: '<S12>/UnitDelay3' */
1068:Src/BLDC_controller.c ****     UnitDelay3 = rtDW->Switch2_e;
 2015              		.loc 1 1068 5 is_stmt 1 view .LVU639
 2016              		.loc 1 1068 16 is_stmt 0 view .LVU640
 2017 006c 94F98E00 		ldrsb	r0, [r4, #142]
 2018              	.LVL182:
1069:Src/BLDC_controller.c **** 
1070:Src/BLDC_controller.c ****     /* Sum: '<S12>/Sum2' incorporates:
1071:Src/BLDC_controller.c ****      *  Constant: '<S11>/vec_hallToPos'
1072:Src/BLDC_controller.c ****      *  Selector: '<S11>/Selector'
1073:Src/BLDC_controller.c ****      *  UnitDelay: '<S12>/UnitDelay2'
1074:Src/BLDC_controller.c ****      */
1075:Src/BLDC_controller.c ****     rtb_Sum2_h = (int8_T)(rtConstP.vec_hallToPos_Value[Sum] -
 2019              		.loc 1 1075 5 is_stmt 1 view .LVU641
 2020              		.loc 1 1075 55 is_stmt 0 view .LVU642
 2021 0070 B94B     		ldr	r3, .L469
 2022 0072 7344     		add	r3, r3, lr
 2023 0074 93F98817 		ldrsb	r1, [r3, #1928]
 2024 0078 CBB2     		uxtb	r3, r1
1076:Src/BLDC_controller.c ****                           rtDW->UnitDelay2_DSTATE_b);
 2025              		.loc 1 1076 31 view .LVU643
 2026 007a 94F88FC0 		ldrb	ip, [r4, #143]	@ zero_extendqisi2
1075:Src/BLDC_controller.c ****                           rtDW->UnitDelay2_DSTATE_b);
 2027              		.loc 1 1075 61 view .LVU644
 2028 007e A3EB0C03 		sub	r3, r3, ip
1075:Src/BLDC_controller.c ****                           rtDW->UnitDelay2_DSTATE_b);
 2029              		.loc 1 1075 16 view .LVU645
 2030 0082 5BB2     		sxtb	r3, r3
 2031              	.LVL183:
1077:Src/BLDC_controller.c **** 
1078:Src/BLDC_controller.c ****     /* Switch: '<S12>/Switch2' incorporates:
1079:Src/BLDC_controller.c ****      *  Constant: '<S12>/Constant20'
1080:Src/BLDC_controller.c ****      *  Constant: '<S12>/Constant23'
1081:Src/BLDC_controller.c ****      *  Constant: '<S12>/Constant24'
1082:Src/BLDC_controller.c ****      *  Constant: '<S12>/Constant8'
1083:Src/BLDC_controller.c ****      *  Logic: '<S12>/Logical Operator3'
1084:Src/BLDC_controller.c ****      *  RelationalOperator: '<S12>/Relational Operator1'
1085:Src/BLDC_controller.c ****      *  RelationalOperator: '<S12>/Relational Operator6'
1086:Src/BLDC_controller.c ****      */
1087:Src/BLDC_controller.c ****     if ((rtb_Sum2_h == 1) || (rtb_Sum2_h == -5)) {
 2032              		.loc 1 1087 5 is_stmt 1 view .LVU646
 2033              		.loc 1 1087 8 is_stmt 0 view .LVU647
 2034 0084 012B     		cmp	r3, #1
 2035 0086 06D0     		beq	.L170
 2036              		.loc 1 1087 27 discriminator 1 view .LVU648
ARM GAS  /tmp/cccGHnrd.s 			page 57


 2037 0088 13F1050F 		cmn	r3, #5
 2038 008c 03D0     		beq	.L170
1088:Src/BLDC_controller.c ****       rtDW->Switch2_e = 1;
1089:Src/BLDC_controller.c ****     } else {
1090:Src/BLDC_controller.c ****       rtDW->Switch2_e = -1;
 2039              		.loc 1 1090 7 is_stmt 1 view .LVU649
 2040              		.loc 1 1090 23 is_stmt 0 view .LVU650
 2041 008e FF23     		movs	r3, #255
 2042              	.LVL184:
 2043              		.loc 1 1090 23 view .LVU651
 2044 0090 84F88E30 		strb	r3, [r4, #142]
 2045 0094 02E0     		b	.L172
 2046              	.LVL185:
 2047              	.L170:
1088:Src/BLDC_controller.c ****       rtDW->Switch2_e = 1;
 2048              		.loc 1 1088 7 is_stmt 1 view .LVU652
1088:Src/BLDC_controller.c ****       rtDW->Switch2_e = 1;
 2049              		.loc 1 1088 23 is_stmt 0 view .LVU653
 2050 0096 0123     		movs	r3, #1
 2051              	.LVL186:
1088:Src/BLDC_controller.c ****       rtDW->Switch2_e = 1;
 2052              		.loc 1 1088 23 view .LVU654
 2053 0098 84F88E30 		strb	r3, [r4, #142]
 2054              	.L172:
1091:Src/BLDC_controller.c ****     }
1092:Src/BLDC_controller.c **** 
1093:Src/BLDC_controller.c ****     /* End of Switch: '<S12>/Switch2' */
1094:Src/BLDC_controller.c **** 
1095:Src/BLDC_controller.c ****     /* Update for UnitDelay: '<S12>/UnitDelay2' incorporates:
1096:Src/BLDC_controller.c ****      *  Constant: '<S11>/vec_hallToPos'
1097:Src/BLDC_controller.c ****      *  Selector: '<S11>/Selector'
1098:Src/BLDC_controller.c ****      */
1099:Src/BLDC_controller.c ****     rtDW->UnitDelay2_DSTATE_b = rtConstP.vec_hallToPos_Value[Sum];
 2055              		.loc 1 1099 5 is_stmt 1 view .LVU655
 2056              		.loc 1 1099 31 is_stmt 0 view .LVU656
 2057 009c 84F88F10 		strb	r1, [r4, #143]
1100:Src/BLDC_controller.c **** 
1101:Src/BLDC_controller.c ****     /* End of Outputs for SubSystem: '<S3>/F01_03_Direction_Detection' */
1102:Src/BLDC_controller.c **** 
1103:Src/BLDC_controller.c ****     /* Outputs for IfAction SubSystem: '<S13>/Raw_Motor_Speed_Estimation' incorporates:
1104:Src/BLDC_controller.c ****      *  ActionPort: '<S17>/Action Port'
1105:Src/BLDC_controller.c ****      */
1106:Src/BLDC_controller.c ****     rtDW->z_counterRawPrev = rtDW->UnitDelay3_DSTATE;
 2058              		.loc 1 1106 5 is_stmt 1 view .LVU657
 2059              		.loc 1 1106 34 is_stmt 0 view .LVU658
 2060 00a0 B4F98010 		ldrsh	r1, [r4, #128]
 2061              	.LVL187:
 2062              		.loc 1 1106 28 view .LVU659
 2063 00a4 A4F85610 		strh	r1, [r4, #86]	@ movhi
1107:Src/BLDC_controller.c **** 
1108:Src/BLDC_controller.c ****     /* Sum: '<S17>/Sum7' incorporates:
1109:Src/BLDC_controller.c ****      *  Inport: '<S17>/z_counterRawPrev'
1110:Src/BLDC_controller.c ****      *  UnitDelay: '<S13>/UnitDelay3'
1111:Src/BLDC_controller.c ****      *  UnitDelay: '<S17>/UnitDelay4'
1112:Src/BLDC_controller.c ****      */
1113:Src/BLDC_controller.c ****     Switch2 = (int16_T)(rtDW->z_counterRawPrev - rtDW->UnitDelay4_DSTATE);
 2064              		.loc 1 1113 5 is_stmt 1 view .LVU660
ARM GAS  /tmp/cccGHnrd.s 			page 58


 2065              		.loc 1 1113 29 is_stmt 0 view .LVU661
 2066 00a8 1FFA81FE 		uxth	lr, r1
 2067              	.LVL188:
 2068              		.loc 1 1113 54 view .LVU662
 2069 00ac B4F882C0 		ldrh	ip, [r4, #130]
 2070              	.LVL189:
 2071              		.loc 1 1113 48 view .LVU663
 2072 00b0 AEEB0C03 		sub	r3, lr, ip
 2073              		.loc 1 1113 13 view .LVU664
 2074 00b4 1BB2     		sxth	r3, r3
 2075              	.LVL190:
1114:Src/BLDC_controller.c **** 
1115:Src/BLDC_controller.c ****     /* Abs: '<S17>/Abs2' */
1116:Src/BLDC_controller.c ****     if (Switch2 < 0) {
 2076              		.loc 1 1116 5 is_stmt 1 view .LVU665
 2077              		.loc 1 1116 8 is_stmt 0 view .LVU666
 2078 00b6 002B     		cmp	r3, #0
 2079 00b8 43DB     		blt	.L436
 2080              	.LVL191:
 2081              	.L173:
1117:Src/BLDC_controller.c ****       rtb_Switch1_l = (int16_T)-Switch2;
1118:Src/BLDC_controller.c ****     } else {
1119:Src/BLDC_controller.c ****       rtb_Switch1_l = Switch2;
1120:Src/BLDC_controller.c ****     }
1121:Src/BLDC_controller.c **** 
1122:Src/BLDC_controller.c ****     /* End of Abs: '<S17>/Abs2' */
1123:Src/BLDC_controller.c **** 
1124:Src/BLDC_controller.c ****     /* Relay: '<S17>/dz_cntTrnsDet' */
1125:Src/BLDC_controller.c ****     if (rtb_Switch1_l >= rtP->dz_cntTrnsDetHi) {
 2082              		.loc 1 1125 5 is_stmt 1 view .LVU667
 2083              		.loc 1 1125 29 is_stmt 0 view .LVU668
 2084 00ba B5F904C0 		ldrsh	ip, [r5, #4]
 2085              		.loc 1 1125 8 view .LVU669
 2086 00be 9C45     		cmp	ip, r3
 2087 00c0 44DC     		bgt	.L174
1126:Src/BLDC_controller.c ****       rtDW->dz_cntTrnsDet_Mode = true;
 2088              		.loc 1 1126 7 is_stmt 1 view .LVU670
 2089              		.loc 1 1126 32 is_stmt 0 view .LVU671
 2090 00c2 0123     		movs	r3, #1
 2091              	.LVL192:
 2092              		.loc 1 1126 32 view .LVU672
 2093 00c4 84F8A930 		strb	r3, [r4, #169]
 2094              	.L175:
1127:Src/BLDC_controller.c ****     } else {
1128:Src/BLDC_controller.c ****       if (rtb_Switch1_l <= rtP->dz_cntTrnsDetLo) {
1129:Src/BLDC_controller.c ****         rtDW->dz_cntTrnsDet_Mode = false;
1130:Src/BLDC_controller.c ****       }
1131:Src/BLDC_controller.c ****     }
1132:Src/BLDC_controller.c **** 
1133:Src/BLDC_controller.c ****     rtDW->dz_cntTrnsDet = rtDW->dz_cntTrnsDet_Mode;
 2095              		.loc 1 1133 5 is_stmt 1 view .LVU673
 2096              		.loc 1 1133 31 is_stmt 0 view .LVU674
 2097 00c8 94F8A980 		ldrb	r8, [r4, #169]	@ zero_extendqisi2
 2098              		.loc 1 1133 25 view .LVU675
 2099 00cc 84F8A280 		strb	r8, [r4, #162]
1134:Src/BLDC_controller.c **** 
1135:Src/BLDC_controller.c ****     /* End of Relay: '<S17>/dz_cntTrnsDet' */
ARM GAS  /tmp/cccGHnrd.s 			page 59


1136:Src/BLDC_controller.c **** 
1137:Src/BLDC_controller.c ****     /* RelationalOperator: '<S17>/Relational Operator4' */
1138:Src/BLDC_controller.c ****     rtb_RelationalOperator4_d = (rtDW->Switch2_e != UnitDelay3);
 2100              		.loc 1 1138 5 is_stmt 1 view .LVU676
 2101              		.loc 1 1138 38 is_stmt 0 view .LVU677
 2102 00d0 94F98E30 		ldrsb	r3, [r4, #142]
 2103              		.loc 1 1138 50 view .LVU678
 2104 00d4 8342     		cmp	r3, r0
 2105 00d6 14BF     		ite	ne
 2106 00d8 4FF0010C 		movne	ip, #1
 2107 00dc 4FF0000C 		moveq	ip, #0
 2108              	.LVL193:
1139:Src/BLDC_controller.c **** 
1140:Src/BLDC_controller.c ****     /* Switch: '<S17>/Switch3' incorporates:
1141:Src/BLDC_controller.c ****      *  Constant: '<S17>/Constant4'
1142:Src/BLDC_controller.c ****      *  Logic: '<S17>/Logical Operator1'
1143:Src/BLDC_controller.c ****      *  Switch: '<S17>/Switch1'
1144:Src/BLDC_controller.c ****      *  Switch: '<S17>/Switch2'
1145:Src/BLDC_controller.c ****      *  UnitDelay: '<S17>/UnitDelay1'
1146:Src/BLDC_controller.c ****      */
1147:Src/BLDC_controller.c ****     if (rtb_RelationalOperator4_d && rtDW->UnitDelay1_DSTATE_n) {
 2109              		.loc 1 1147 5 is_stmt 1 view .LVU679
 2110              		.loc 1 1147 8 is_stmt 0 view .LVU680
 2111 00e0 04D0     		beq	.L176
 2112              		.loc 1 1147 42 discriminator 1 view .LVU681
 2113 00e2 94F8A790 		ldrb	r9, [r4, #167]	@ zero_extendqisi2
 2114              		.loc 1 1147 35 discriminator 1 view .LVU682
 2115 00e6 B9F1000F 		cmp	r9, #0
 2116 00ea 57D1     		bne	.L345
 2117              	.L176:
1148:Src/BLDC_controller.c ****       rtb_Switch1_l = 0;
1149:Src/BLDC_controller.c ****     } else if (rtb_RelationalOperator4_d) {
 2118              		.loc 1 1149 12 is_stmt 1 view .LVU683
 2119              		.loc 1 1149 15 is_stmt 0 view .LVU684
 2120 00ec 8342     		cmp	r3, r0
 2121 00ee 35D0     		beq	.L178
1150:Src/BLDC_controller.c ****       /* Switch: '<S17>/Switch2' incorporates:
1151:Src/BLDC_controller.c ****        *  UnitDelay: '<S13>/UnitDelay4'
1152:Src/BLDC_controller.c ****        */
1153:Src/BLDC_controller.c ****       rtb_Switch1_l = rtDW->UnitDelay4_DSTATE_e;
 2122              		.loc 1 1153 7 is_stmt 1 view .LVU685
 2123              		.loc 1 1153 21 is_stmt 0 view .LVU686
 2124 00f0 B4F98A00 		ldrsh	r0, [r4, #138]
 2125              	.LVL194:
 2126              	.L177:
1154:Src/BLDC_controller.c ****     } else if (rtDW->dz_cntTrnsDet) {
1155:Src/BLDC_controller.c ****       /* Switch: '<S17>/Switch1' incorporates:
1156:Src/BLDC_controller.c ****        *  Constant: '<S17>/cf_speedCoef'
1157:Src/BLDC_controller.c ****        *  Product: '<S17>/Divide14'
1158:Src/BLDC_controller.c ****        *  Switch: '<S17>/Switch2'
1159:Src/BLDC_controller.c ****        */
1160:Src/BLDC_controller.c ****       rtb_Switch1_l = (int16_T)((rtP->cf_speedCoef << 4) /
1161:Src/BLDC_controller.c ****         rtDW->z_counterRawPrev);
1162:Src/BLDC_controller.c ****     } else {
1163:Src/BLDC_controller.c ****       /* Switch: '<S17>/Switch1' incorporates:
1164:Src/BLDC_controller.c ****        *  Constant: '<S17>/cf_speedCoef'
1165:Src/BLDC_controller.c ****        *  Gain: '<S17>/g_Ha'
ARM GAS  /tmp/cccGHnrd.s 			page 60


1166:Src/BLDC_controller.c ****        *  Product: '<S17>/Divide13'
1167:Src/BLDC_controller.c ****        *  Sum: '<S17>/Sum13'
1168:Src/BLDC_controller.c ****        *  Switch: '<S17>/Switch2'
1169:Src/BLDC_controller.c ****        *  UnitDelay: '<S17>/UnitDelay2'
1170:Src/BLDC_controller.c ****        *  UnitDelay: '<S17>/UnitDelay3'
1171:Src/BLDC_controller.c ****        *  UnitDelay: '<S17>/UnitDelay5'
1172:Src/BLDC_controller.c ****        */
1173:Src/BLDC_controller.c ****       rtb_Switch1_l = (int16_T)(((uint16_T)(rtP->cf_speedCoef << 2) << 4) /
1174:Src/BLDC_controller.c ****         (int16_T)(((rtDW->UnitDelay2_DSTATE + rtDW->UnitDelay3_DSTATE_o) +
1175:Src/BLDC_controller.c ****                    rtDW->UnitDelay5_DSTATE) + rtDW->z_counterRawPrev));
1176:Src/BLDC_controller.c ****     }
1177:Src/BLDC_controller.c **** 
1178:Src/BLDC_controller.c ****     /* End of Switch: '<S17>/Switch3' */
1179:Src/BLDC_controller.c **** 
1180:Src/BLDC_controller.c ****     /* Product: '<S17>/Divide11' */
1181:Src/BLDC_controller.c ****     rtDW->Divide11 = (int16_T)(rtb_Switch1_l * rtDW->Switch2_e);
 2127              		.loc 1 1181 5 is_stmt 1 view .LVU687
 2128              		.loc 1 1181 52 is_stmt 0 view .LVU688
 2129 00f4 9BB2     		uxth	r3, r3
 2130              		.loc 1 1181 46 view .LVU689
 2131 00f6 00FB03F3 		mul	r3, r0, r3
 2132              		.loc 1 1181 20 view .LVU690
 2133 00fa A4F87A30 		strh	r3, [r4, #122]	@ movhi
1182:Src/BLDC_controller.c **** 
1183:Src/BLDC_controller.c ****     /* Update for UnitDelay: '<S17>/UnitDelay4' */
1184:Src/BLDC_controller.c ****     rtDW->UnitDelay4_DSTATE = rtDW->z_counterRawPrev;
 2134              		.loc 1 1184 5 is_stmt 1 view .LVU691
 2135              		.loc 1 1184 29 is_stmt 0 view .LVU692
 2136 00fe A4F88210 		strh	r1, [r4, #130]	@ movhi
 2137              	.LVL195:
1185:Src/BLDC_controller.c **** 
1186:Src/BLDC_controller.c ****     /* Update for UnitDelay: '<S17>/UnitDelay2' incorporates:
1187:Src/BLDC_controller.c ****      *  UnitDelay: '<S17>/UnitDelay3'
1188:Src/BLDC_controller.c ****      */
1189:Src/BLDC_controller.c ****     rtDW->UnitDelay2_DSTATE = rtDW->UnitDelay3_DSTATE_o;
 2138              		.loc 1 1189 5 is_stmt 1 view .LVU693
 2139              		.loc 1 1189 35 is_stmt 0 view .LVU694
 2140 0102 B4F98630 		ldrsh	r3, [r4, #134]
 2141              		.loc 1 1189 29 view .LVU695
 2142 0106 A4F88430 		strh	r3, [r4, #132]	@ movhi
1190:Src/BLDC_controller.c **** 
1191:Src/BLDC_controller.c ****     /* Update for UnitDelay: '<S17>/UnitDelay3' incorporates:
1192:Src/BLDC_controller.c ****      *  UnitDelay: '<S17>/UnitDelay5'
1193:Src/BLDC_controller.c ****      */
1194:Src/BLDC_controller.c ****     rtDW->UnitDelay3_DSTATE_o = rtDW->UnitDelay5_DSTATE;
 2143              		.loc 1 1194 5 is_stmt 1 view .LVU696
 2144              		.loc 1 1194 37 is_stmt 0 view .LVU697
 2145 010a B4F98830 		ldrsh	r3, [r4, #136]
 2146              		.loc 1 1194 31 view .LVU698
 2147 010e A4F88630 		strh	r3, [r4, #134]	@ movhi
1195:Src/BLDC_controller.c **** 
1196:Src/BLDC_controller.c ****     /* Update for UnitDelay: '<S17>/UnitDelay5' */
1197:Src/BLDC_controller.c ****     rtDW->UnitDelay5_DSTATE = rtDW->z_counterRawPrev;
 2148              		.loc 1 1197 5 is_stmt 1 view .LVU699
 2149              		.loc 1 1197 29 is_stmt 0 view .LVU700
 2150 0112 A4F88810 		strh	r1, [r4, #136]	@ movhi
1198:Src/BLDC_controller.c **** 
ARM GAS  /tmp/cccGHnrd.s 			page 61


1199:Src/BLDC_controller.c ****     /* Update for UnitDelay: '<S17>/UnitDelay1' */
1200:Src/BLDC_controller.c ****     rtDW->UnitDelay1_DSTATE_n = rtb_RelationalOperator4_d;
 2151              		.loc 1 1200 5 is_stmt 1 view .LVU701
 2152              		.loc 1 1200 31 is_stmt 0 view .LVU702
 2153 0116 84F8A7C0 		strb	ip, [r4, #167]
 2154              	.LVL196:
 2155              	.L169:
1201:Src/BLDC_controller.c **** 
1202:Src/BLDC_controller.c ****     /* End of Outputs for SubSystem: '<S13>/Raw_Motor_Speed_Estimation' */
1203:Src/BLDC_controller.c ****   }
1204:Src/BLDC_controller.c **** 
1205:Src/BLDC_controller.c ****   /* End of If: '<S13>/If2' */
1206:Src/BLDC_controller.c **** 
1207:Src/BLDC_controller.c ****   /* Outputs for Atomic SubSystem: '<S13>/Counter' */
1208:Src/BLDC_controller.c **** 
1209:Src/BLDC_controller.c ****   /* Constant: '<S13>/Constant6' incorporates:
1210:Src/BLDC_controller.c ****    *  Constant: '<S13>/z_maxCntRst2'
1211:Src/BLDC_controller.c ****    */
1212:Src/BLDC_controller.c ****   rtb_Switch1_l = (int16_T) Counter(1, rtP->z_maxCntRst, rtb_LogicalOperator,
 2156              		.loc 1 1212 3 is_stmt 1 view .LVU703
 2157              		.loc 1 1212 29 is_stmt 0 view .LVU704
 2158 011a 04F14003 		add	r3, r4, #64
 2159 011e B5F90A10 		ldrsh	r1, [r5, #10]
 2160 0122 0120     		movs	r0, #1
 2161 0124 FFF7FEFF 		bl	Counter
 2162              	.LVL197:
 2163              		.loc 1 1212 29 view .LVU705
 2164 0128 0B90     		str	r0, [sp, #44]
 2165              	.LVL198:
1213:Src/BLDC_controller.c ****     &rtDW->Counter_e);
1214:Src/BLDC_controller.c **** 
1215:Src/BLDC_controller.c ****   /* End of Outputs for SubSystem: '<S13>/Counter' */
1216:Src/BLDC_controller.c **** 
1217:Src/BLDC_controller.c ****   /* Switch: '<S13>/Switch2' incorporates:
1218:Src/BLDC_controller.c ****    *  Constant: '<S13>/Constant4'
1219:Src/BLDC_controller.c ****    *  Constant: '<S13>/z_maxCntRst'
1220:Src/BLDC_controller.c ****    *  RelationalOperator: '<S13>/Relational Operator2'
1221:Src/BLDC_controller.c ****    */
1222:Src/BLDC_controller.c ****   if (rtb_Switch1_l > rtP->z_maxCntRst) {
 2166              		.loc 1 1222 3 is_stmt 1 view .LVU706
 2167              		.loc 1 1222 26 is_stmt 0 view .LVU707
 2168 012a B5F90A30 		ldrsh	r3, [r5, #10]
 2169              		.loc 1 1222 6 view .LVU708
 2170 012e 8342     		cmp	r3, r0
 2171 0130 3ADB     		blt	.L346
1223:Src/BLDC_controller.c ****     Switch2 = 0;
1224:Src/BLDC_controller.c ****   } else {
1225:Src/BLDC_controller.c ****     Switch2 = rtDW->Divide11;
 2172              		.loc 1 1225 5 is_stmt 1 view .LVU709
 2173              		.loc 1 1225 13 is_stmt 0 view .LVU710
 2174 0132 B4F97A30 		ldrsh	r3, [r4, #122]
 2175 0136 0A93     		str	r3, [sp, #40]
 2176              	.LVL199:
1226:Src/BLDC_controller.c ****   }
1227:Src/BLDC_controller.c **** 
1228:Src/BLDC_controller.c ****   /* End of Switch: '<S13>/Switch2' */
1229:Src/BLDC_controller.c **** 
ARM GAS  /tmp/cccGHnrd.s 			page 62


1230:Src/BLDC_controller.c ****   /* Abs: '<S13>/Abs5' */
1231:Src/BLDC_controller.c ****   if (Switch2 < 0) {
 2177              		.loc 1 1231 3 is_stmt 1 view .LVU711
 2178              		.loc 1 1231 6 is_stmt 0 view .LVU712
 2179 0138 002B     		cmp	r3, #0
 2180 013a 31DB     		blt	.L437
1232:Src/BLDC_controller.c ****     Abs5 = (int16_T)-Switch2;
1233:Src/BLDC_controller.c ****   } else {
1234:Src/BLDC_controller.c ****     Abs5 = Switch2;
 2181              		.loc 1 1234 10 view .LVU713
 2182 013c 0A9B     		ldr	r3, [sp, #40]
 2183              		.loc 1 1234 10 view .LVU714
 2184 013e 0693     		str	r3, [sp, #24]
 2185 0140 35E0     		b	.L180
 2186              	.LVL200:
 2187              	.L436:
1117:Src/BLDC_controller.c ****     } else {
 2188              		.loc 1 1117 7 is_stmt 1 view .LVU715
1117:Src/BLDC_controller.c ****     } else {
 2189              		.loc 1 1117 23 is_stmt 0 view .LVU716
 2190 0142 ACEB0E0C 		sub	ip, ip, lr
1117:Src/BLDC_controller.c ****     } else {
 2191              		.loc 1 1117 21 view .LVU717
 2192 0146 0FFA8CF3 		sxth	r3, ip
 2193              	.LVL201:
1117:Src/BLDC_controller.c ****     } else {
 2194              		.loc 1 1117 21 view .LVU718
 2195 014a B6E7     		b	.L173
 2196              	.L174:
1128:Src/BLDC_controller.c ****         rtDW->dz_cntTrnsDet_Mode = false;
 2197              		.loc 1 1128 7 is_stmt 1 view .LVU719
1128:Src/BLDC_controller.c ****         rtDW->dz_cntTrnsDet_Mode = false;
 2198              		.loc 1 1128 31 is_stmt 0 view .LVU720
 2199 014c B5F906C0 		ldrsh	ip, [r5, #6]
1128:Src/BLDC_controller.c ****         rtDW->dz_cntTrnsDet_Mode = false;
 2200              		.loc 1 1128 10 view .LVU721
 2201 0150 9C45     		cmp	ip, r3
 2202 0152 B9DB     		blt	.L175
1129:Src/BLDC_controller.c ****       }
 2203              		.loc 1 1129 9 is_stmt 1 view .LVU722
1129:Src/BLDC_controller.c ****       }
 2204              		.loc 1 1129 34 is_stmt 0 view .LVU723
 2205 0154 0023     		movs	r3, #0
 2206              	.LVL202:
1129:Src/BLDC_controller.c ****       }
 2207              		.loc 1 1129 34 view .LVU724
 2208 0156 84F8A930 		strb	r3, [r4, #169]
 2209 015a B5E7     		b	.L175
 2210              	.LVL203:
 2211              	.L178:
1154:Src/BLDC_controller.c ****       /* Switch: '<S17>/Switch1' incorporates:
 2212              		.loc 1 1154 12 is_stmt 1 view .LVU725
1154:Src/BLDC_controller.c ****       /* Switch: '<S17>/Switch1' incorporates:
 2213              		.loc 1 1154 15 is_stmt 0 view .LVU726
 2214 015c B8F1000F 		cmp	r8, #0
 2215 0160 05D0     		beq	.L179
1160:Src/BLDC_controller.c ****         rtDW->z_counterRawPrev);
ARM GAS  /tmp/cccGHnrd.s 			page 63


 2216              		.loc 1 1160 7 is_stmt 1 view .LVU727
1160:Src/BLDC_controller.c ****         rtDW->z_counterRawPrev);
 2217              		.loc 1 1160 37 is_stmt 0 view .LVU728
 2218 0162 A889     		ldrh	r0, [r5, #12]
 2219              	.LVL204:
1160:Src/BLDC_controller.c ****         rtDW->z_counterRawPrev);
 2220              		.loc 1 1160 52 view .LVU729
 2221 0164 0001     		lsls	r0, r0, #4
1160:Src/BLDC_controller.c ****         rtDW->z_counterRawPrev);
 2222              		.loc 1 1160 58 view .LVU730
 2223 0166 90FBF1F0 		sdiv	r0, r0, r1
1160:Src/BLDC_controller.c ****         rtDW->z_counterRawPrev);
 2224              		.loc 1 1160 21 view .LVU731
 2225 016a 00B2     		sxth	r0, r0
 2226              	.LVL205:
1160:Src/BLDC_controller.c ****         rtDW->z_counterRawPrev);
 2227              		.loc 1 1160 21 view .LVU732
 2228 016c C2E7     		b	.L177
 2229              	.LVL206:
 2230              	.L179:
1173:Src/BLDC_controller.c ****         (int16_T)(((rtDW->UnitDelay2_DSTATE + rtDW->UnitDelay3_DSTATE_o) +
 2231              		.loc 1 1173 7 is_stmt 1 view .LVU733
1173:Src/BLDC_controller.c ****         (int16_T)(((rtDW->UnitDelay2_DSTATE + rtDW->UnitDelay3_DSTATE_o) +
 2232              		.loc 1 1173 48 is_stmt 0 view .LVU734
 2233 016e A889     		ldrh	r0, [r5, #12]
 2234              	.LVL207:
1173:Src/BLDC_controller.c ****         (int16_T)(((rtDW->UnitDelay2_DSTATE + rtDW->UnitDelay3_DSTATE_o) +
 2235              		.loc 1 1173 34 view .LVU735
 2236 0170 8000     		lsls	r0, r0, #2
 2237 0172 80B2     		uxth	r0, r0
1173:Src/BLDC_controller.c ****         (int16_T)(((rtDW->UnitDelay2_DSTATE + rtDW->UnitDelay3_DSTATE_o) +
 2238              		.loc 1 1173 69 view .LVU736
 2239 0174 0001     		lsls	r0, r0, #4
1174:Src/BLDC_controller.c ****                    rtDW->UnitDelay5_DSTATE) + rtDW->z_counterRawPrev));
 2240              		.loc 1 1174 25 view .LVU737
 2241 0176 B4F88480 		ldrh	r8, [r4, #132]
1174:Src/BLDC_controller.c ****                    rtDW->UnitDelay5_DSTATE) + rtDW->z_counterRawPrev));
 2242              		.loc 1 1174 51 view .LVU738
 2243 017a B4F88690 		ldrh	r9, [r4, #134]
1174:Src/BLDC_controller.c ****                    rtDW->UnitDelay5_DSTATE) + rtDW->z_counterRawPrev));
 2244              		.loc 1 1174 45 view .LVU739
 2245 017e C844     		add	r8, r8, r9
 2246 0180 1FFA88F8 		uxth	r8, r8
1175:Src/BLDC_controller.c ****     }
 2247              		.loc 1 1175 24 view .LVU740
 2248 0184 B4F88890 		ldrh	r9, [r4, #136]
1174:Src/BLDC_controller.c ****                    rtDW->UnitDelay5_DSTATE) + rtDW->z_counterRawPrev));
 2249              		.loc 1 1174 74 view .LVU741
 2250 0188 C844     		add	r8, r8, r9
 2251 018a 1FFA88F8 		uxth	r8, r8
1175:Src/BLDC_controller.c ****     }
 2252              		.loc 1 1175 45 view .LVU742
 2253 018e C644     		add	lr, lr, r8
 2254              	.LVL208:
1174:Src/BLDC_controller.c ****                    rtDW->UnitDelay5_DSTATE) + rtDW->z_counterRawPrev));
 2255              		.loc 1 1174 9 view .LVU743
 2256 0190 0FFA8EFE 		sxth	lr, lr
ARM GAS  /tmp/cccGHnrd.s 			page 64


1173:Src/BLDC_controller.c ****         (int16_T)(((rtDW->UnitDelay2_DSTATE + rtDW->UnitDelay3_DSTATE_o) +
 2257              		.loc 1 1173 75 view .LVU744
 2258 0194 90FBFEF0 		sdiv	r0, r0, lr
1173:Src/BLDC_controller.c ****         (int16_T)(((rtDW->UnitDelay2_DSTATE + rtDW->UnitDelay3_DSTATE_o) +
 2259              		.loc 1 1173 21 view .LVU745
 2260 0198 00B2     		sxth	r0, r0
 2261              	.LVL209:
1173:Src/BLDC_controller.c ****         (int16_T)(((rtDW->UnitDelay2_DSTATE + rtDW->UnitDelay3_DSTATE_o) +
 2262              		.loc 1 1173 21 view .LVU746
 2263 019a ABE7     		b	.L177
 2264              	.LVL210:
 2265              	.L345:
1148:Src/BLDC_controller.c ****     } else if (rtb_RelationalOperator4_d) {
 2266              		.loc 1 1148 21 view .LVU747
 2267 019c 0020     		movs	r0, #0
 2268              	.LVL211:
1148:Src/BLDC_controller.c ****     } else if (rtb_RelationalOperator4_d) {
 2269              		.loc 1 1148 21 view .LVU748
 2270 019e A9E7     		b	.L177
 2271              	.LVL212:
 2272              	.L437:
1232:Src/BLDC_controller.c ****   } else {
 2273              		.loc 1 1232 5 is_stmt 1 view .LVU749
1232:Src/BLDC_controller.c ****   } else {
 2274              		.loc 1 1232 12 is_stmt 0 view .LVU750
 2275 01a0 5B42     		rsbs	r3, r3, #0
 2276              	.LVL213:
1232:Src/BLDC_controller.c ****   } else {
 2277              		.loc 1 1232 10 view .LVU751
 2278 01a2 1BB2     		sxth	r3, r3
 2279 01a4 0693     		str	r3, [sp, #24]
 2280              	.LVL214:
1232:Src/BLDC_controller.c ****   } else {
 2281              		.loc 1 1232 10 view .LVU752
 2282 01a6 02E0     		b	.L180
 2283              	.LVL215:
 2284              	.L346:
1223:Src/BLDC_controller.c ****   } else {
 2285              		.loc 1 1223 13 view .LVU753
 2286 01a8 0023     		movs	r3, #0
 2287 01aa 0A93     		str	r3, [sp, #40]
 2288              		.loc 1 1234 10 view .LVU754
 2289 01ac 0693     		str	r3, [sp, #24]
 2290              	.L180:
 2291              	.LVL216:
1235:Src/BLDC_controller.c ****   }
1236:Src/BLDC_controller.c **** 
1237:Src/BLDC_controller.c ****   /* End of Abs: '<S13>/Abs5' */
1238:Src/BLDC_controller.c **** 
1239:Src/BLDC_controller.c ****   /* Relay: '<S13>/n_commDeacv' */
1240:Src/BLDC_controller.c ****   if (Abs5 >= rtP->n_commDeacvHi) {
 2292              		.loc 1 1240 3 is_stmt 1 view .LVU755
 2293              		.loc 1 1240 18 is_stmt 0 view .LVU756
 2294 01ae B5F9D430 		ldrsh	r3, [r5, #212]
 2295              		.loc 1 1240 6 view .LVU757
 2296 01b2 069A     		ldr	r2, [sp, #24]
 2297 01b4 9342     		cmp	r3, r2
ARM GAS  /tmp/cccGHnrd.s 			page 65


 2298 01b6 0DDC     		bgt	.L181
1241:Src/BLDC_controller.c ****     rtDW->n_commDeacv_Mode = true;
 2299              		.loc 1 1241 5 is_stmt 1 view .LVU758
 2300              		.loc 1 1241 28 is_stmt 0 view .LVU759
 2301 01b8 0123     		movs	r3, #1
 2302 01ba 84F8A830 		strb	r3, [r4, #168]
 2303              	.L182:
1242:Src/BLDC_controller.c ****   } else {
1243:Src/BLDC_controller.c ****     if (Abs5 <= rtP->n_commAcvLo) {
1244:Src/BLDC_controller.c ****       rtDW->n_commDeacv_Mode = false;
1245:Src/BLDC_controller.c ****     }
1246:Src/BLDC_controller.c ****   }
1247:Src/BLDC_controller.c **** 
1248:Src/BLDC_controller.c ****   /* Logic: '<S13>/Logical Operator3' incorporates:
1249:Src/BLDC_controller.c ****    *  Constant: '<S13>/b_angleMeasEna'
1250:Src/BLDC_controller.c ****    *  Logic: '<S13>/Logical Operator1'
1251:Src/BLDC_controller.c ****    *  Logic: '<S13>/Logical Operator2'
1252:Src/BLDC_controller.c ****    *  Relay: '<S13>/n_commDeacv'
1253:Src/BLDC_controller.c ****    */
1254:Src/BLDC_controller.c ****   rtb_LogicalOperator = (rtP->b_angleMeasEna || (rtDW->n_commDeacv_Mode &&
 2304              		.loc 1 1254 3 is_stmt 1 view .LVU760
 2305              		.loc 1 1254 29 is_stmt 0 view .LVU761
 2306 01be 95F8FB30 		ldrb	r3, [r5, #251]	@ zero_extendqisi2
 2307              		.loc 1 1254 46 view .LVU762
 2308 01c2 83B9     		cbnz	r3, .L348
 2309              		.loc 1 1254 54 discriminator 2 view .LVU763
 2310 01c4 94F8A820 		ldrb	r2, [r4, #168]	@ zero_extendqisi2
 2311              		.loc 1 1254 46 discriminator 2 view .LVU764
 2312 01c8 5AB3     		cbz	r2, .L349
1255:Src/BLDC_controller.c ****     (!rtDW->dz_cntTrnsDet)));
 2313              		.loc 1 1255 11 view .LVU765
 2314 01ca 94F8A220 		ldrb	r2, [r4, #162]	@ zero_extendqisi2
1254:Src/BLDC_controller.c ****     (!rtDW->dz_cntTrnsDet)));
 2315              		.loc 1 1254 73 discriminator 3 view .LVU766
 2316 01ce 52B3     		cbz	r2, .L350
1254:Src/BLDC_controller.c ****     (!rtDW->dz_cntTrnsDet)));
 2317              		.loc 1 1254 46 discriminator 6 view .LVU767
 2318 01d0 0022     		movs	r2, #0
 2319 01d2 09E0     		b	.L183
 2320              	.L181:
1243:Src/BLDC_controller.c ****       rtDW->n_commDeacv_Mode = false;
 2321              		.loc 1 1243 5 is_stmt 1 view .LVU768
1243:Src/BLDC_controller.c ****       rtDW->n_commDeacv_Mode = false;
 2322              		.loc 1 1243 20 is_stmt 0 view .LVU769
 2323 01d4 B5F9D230 		ldrsh	r3, [r5, #210]
1243:Src/BLDC_controller.c ****       rtDW->n_commDeacv_Mode = false;
 2324              		.loc 1 1243 8 view .LVU770
 2325 01d8 069A     		ldr	r2, [sp, #24]
 2326 01da 9342     		cmp	r3, r2
 2327 01dc EFDB     		blt	.L182
1244:Src/BLDC_controller.c ****     }
 2328              		.loc 1 1244 7 is_stmt 1 view .LVU771
1244:Src/BLDC_controller.c ****     }
 2329              		.loc 1 1244 30 is_stmt 0 view .LVU772
 2330 01de 0023     		movs	r3, #0
 2331 01e0 84F8A830 		strb	r3, [r4, #168]
 2332 01e4 EBE7     		b	.L182
ARM GAS  /tmp/cccGHnrd.s 			page 66


 2333              	.L348:
1254:Src/BLDC_controller.c ****     (!rtDW->dz_cntTrnsDet)));
 2334              		.loc 1 1254 46 discriminator 5 view .LVU773
 2335 01e6 0122     		movs	r2, #1
 2336              	.L183:
1254:Src/BLDC_controller.c ****     (!rtDW->dz_cntTrnsDet)));
 2337              		.loc 1 1254 23 discriminator 8 view .LVU774
 2338 01e8 D2B2     		uxtb	r2, r2
 2339 01ea 0992     		str	r2, [sp, #36]
 2340              	.LVL217:
1256:Src/BLDC_controller.c **** 
1257:Src/BLDC_controller.c ****   /* UnitDelay: '<S2>/UnitDelay2' */
1258:Src/BLDC_controller.c ****   rtb_RelationalOperator4_d = rtDW->UnitDelay2_DSTATE_c;
 2341              		.loc 1 1258 3 is_stmt 1 view .LVU775
 2342              		.loc 1 1258 29 is_stmt 0 view .LVU776
 2343 01ec 94F8A320 		ldrb	r2, [r4, #163]	@ zero_extendqisi2
 2344 01f0 0C92     		str	r2, [sp, #48]
 2345              	.LVL218:
1259:Src/BLDC_controller.c **** 
1260:Src/BLDC_controller.c ****   /* UnitDelay: '<S2>/UnitDelay5' */
1261:Src/BLDC_controller.c ****   rtb_UnitDelay5_e = rtDW->UnitDelay5_DSTATE_m;
 2346              		.loc 1 1261 3 is_stmt 1 view .LVU777
 2347              		.loc 1 1261 20 is_stmt 0 view .LVU778
 2348 01f2 94F8A420 		ldrb	r2, [r4, #164]	@ zero_extendqisi2
 2349 01f6 0D92     		str	r2, [sp, #52]
 2350              	.LVL219:
1262:Src/BLDC_controller.c **** 
1263:Src/BLDC_controller.c ****   /* DataTypeConversion: '<S1>/Data Type Conversion2' incorporates:
1264:Src/BLDC_controller.c ****    *  Inport: '<Root>/r_inpTgt'
1265:Src/BLDC_controller.c ****    */
1266:Src/BLDC_controller.c ****   DataTypeConversion2 = (int16_T)(rtU->r_inpTgt << 4);
 2351              		.loc 1 1266 3 is_stmt 1 view .LVU779
 2352              		.loc 1 1266 38 is_stmt 0 view .LVU780
 2353 01f8 B6F90290 		ldrsh	r9, [r6, #2]
 2354              		.loc 1 1266 23 view .LVU781
 2355 01fc 4FEA0919 		lsl	r9, r9, #4
 2356 0200 0FFA89F9 		sxth	r9, r9
 2357              	.LVL220:
1267:Src/BLDC_controller.c **** 
1268:Src/BLDC_controller.c ****   /* Saturate: '<S1>/Saturation' incorporates:
1269:Src/BLDC_controller.c ****    *  Inport: '<Root>/i_phaAB'
1270:Src/BLDC_controller.c ****    */
1271:Src/BLDC_controller.c ****   rtb_Gain3 = rtU->i_phaAB << 4;
 2358              		.loc 1 1271 3 is_stmt 1 view .LVU782
 2359              		.loc 1 1271 18 is_stmt 0 view .LVU783
 2360 0204 B6F908A0 		ldrsh	r10, [r6, #8]
 2361              		.loc 1 1271 13 view .LVU784
 2362 0208 4FEA0A11 		lsl	r1, r10, #4
 2363              	.LVL221:
1272:Src/BLDC_controller.c ****   if (rtb_Gain3 >= 27200) {
 2364              		.loc 1 1272 3 is_stmt 1 view .LVU785
 2365              		.loc 1 1272 6 is_stmt 0 view .LVU786
 2366 020c 46F63F22 		movw	r2, #27199
 2367 0210 B2EB0A1F 		cmp	r2, r10, lsl #4
 2368 0214 09DB     		blt	.L351
1273:Src/BLDC_controller.c ****     rtb_Saturation = 27200;
1274:Src/BLDC_controller.c ****   } else if (rtb_Gain3 <= -27200) {
ARM GAS  /tmp/cccGHnrd.s 			page 67


 2369              		.loc 1 1274 10 is_stmt 1 view .LVU787
 2370              		.loc 1 1274 13 is_stmt 0 view .LVU788
 2371 0216 514A     		ldr	r2, .L469+4
 2372 0218 9142     		cmp	r1, r2
 2373 021a 17DB     		blt	.L352
1275:Src/BLDC_controller.c ****     rtb_Saturation = -27200;
1276:Src/BLDC_controller.c ****   } else {
1277:Src/BLDC_controller.c ****     rtb_Saturation = (int16_T)(rtU->i_phaAB << 4);
 2374              		.loc 1 1277 5 is_stmt 1 view .LVU789
 2375              		.loc 1 1277 20 is_stmt 0 view .LVU790
 2376 021c 0FFA81FA 		sxth	r10, r1
 2377              	.LVL222:
 2378              		.loc 1 1277 20 view .LVU791
 2379 0220 05E0     		b	.L184
 2380              	.LVL223:
 2381              	.L349:
1254:Src/BLDC_controller.c ****     (!rtDW->dz_cntTrnsDet)));
 2382              		.loc 1 1254 46 discriminator 6 view .LVU792
 2383 0222 0022     		movs	r2, #0
 2384 0224 E0E7     		b	.L183
 2385              	.L350:
1254:Src/BLDC_controller.c ****     (!rtDW->dz_cntTrnsDet)));
 2386              		.loc 1 1254 46 discriminator 5 view .LVU793
 2387 0226 0122     		movs	r2, #1
 2388 0228 DEE7     		b	.L183
 2389              	.LVL224:
 2390              	.L351:
1273:Src/BLDC_controller.c ****     rtb_Saturation = 27200;
 2391              		.loc 1 1273 20 view .LVU794
 2392 022a 46F6402A 		movw	r10, #27200
 2393              	.L184:
 2394              	.LVL225:
1278:Src/BLDC_controller.c ****   }
1279:Src/BLDC_controller.c **** 
1280:Src/BLDC_controller.c ****   /* End of Saturate: '<S1>/Saturation' */
1281:Src/BLDC_controller.c **** 
1282:Src/BLDC_controller.c ****   /* Saturate: '<S1>/Saturation1' incorporates:
1283:Src/BLDC_controller.c ****    *  Inport: '<Root>/i_phaBC'
1284:Src/BLDC_controller.c ****    */
1285:Src/BLDC_controller.c ****   rtb_Gain3 = rtU->i_phaBC << 4;
 2395              		.loc 1 1285 3 is_stmt 1 view .LVU795
 2396              		.loc 1 1285 18 is_stmt 0 view .LVU796
 2397 022e B6F90A80 		ldrsh	r8, [r6, #10]
 2398              		.loc 1 1285 13 view .LVU797
 2399 0232 4FEA0811 		lsl	r1, r8, #4
 2400              	.LVL226:
1286:Src/BLDC_controller.c ****   if (rtb_Gain3 >= 27200) {
 2401              		.loc 1 1286 3 is_stmt 1 view .LVU798
 2402              		.loc 1 1286 6 is_stmt 0 view .LVU799
 2403 0236 46F63F22 		movw	r2, #27199
 2404 023a B2EB081F 		cmp	r2, r8, lsl #4
 2405 023e 08DB     		blt	.L353
1287:Src/BLDC_controller.c ****     rtb_Saturation1 = 27200;
1288:Src/BLDC_controller.c ****   } else if (rtb_Gain3 <= -27200) {
 2406              		.loc 1 1288 10 is_stmt 1 view .LVU800
 2407              		.loc 1 1288 13 is_stmt 0 view .LVU801
 2408 0240 464A     		ldr	r2, .L469+4
ARM GAS  /tmp/cccGHnrd.s 			page 68


 2409 0242 9142     		cmp	r1, r2
 2410 0244 7DDB     		blt	.L354
1289:Src/BLDC_controller.c ****     rtb_Saturation1 = -27200;
1290:Src/BLDC_controller.c ****   } else {
1291:Src/BLDC_controller.c ****     rtb_Saturation1 = (int16_T)(rtU->i_phaBC << 4);
 2411              		.loc 1 1291 5 is_stmt 1 view .LVU802
 2412              		.loc 1 1291 21 is_stmt 0 view .LVU803
 2413 0246 0FFA81F8 		sxth	r8, r1
 2414              	.LVL227:
 2415              		.loc 1 1291 21 view .LVU804
 2416 024a 04E0     		b	.L185
 2417              	.LVL228:
 2418              	.L352:
1275:Src/BLDC_controller.c ****   } else {
 2419              		.loc 1 1275 20 view .LVU805
 2420 024c DFF810A1 		ldr	r10, .L469+8
 2421 0250 EDE7     		b	.L184
 2422              	.LVL229:
 2423              	.L353:
1287:Src/BLDC_controller.c ****     rtb_Saturation1 = 27200;
 2424              		.loc 1 1287 21 view .LVU806
 2425 0252 46F64028 		movw	r8, #27200
 2426              	.L185:
 2427              	.LVL230:
1292:Src/BLDC_controller.c ****   }
1293:Src/BLDC_controller.c **** 
1294:Src/BLDC_controller.c ****   /* End of Saturate: '<S1>/Saturation1' */
1295:Src/BLDC_controller.c **** 
1296:Src/BLDC_controller.c ****   /* If: '<S3>/If1' incorporates:
1297:Src/BLDC_controller.c ****    *  Constant: '<S3>/b_angleMeasEna'
1298:Src/BLDC_controller.c ****    */
1299:Src/BLDC_controller.c ****   if (!rtP->b_angleMeasEna) {
 2428              		.loc 1 1299 3 is_stmt 1 view .LVU807
 2429              		.loc 1 1299 6 is_stmt 0 view .LVU808
 2430 0256 002B     		cmp	r3, #0
 2431 0258 40F09C80 		bne	.L186
1300:Src/BLDC_controller.c ****     /* Outputs for IfAction SubSystem: '<S3>/F01_05_Electrical_Angle_Estimation' incorporates:
1301:Src/BLDC_controller.c ****      *  ActionPort: '<S14>/Action Port'
1302:Src/BLDC_controller.c ****      */
1303:Src/BLDC_controller.c ****     /* Switch: '<S14>/Switch2' incorporates:
1304:Src/BLDC_controller.c ****      *  Constant: '<S14>/Constant16'
1305:Src/BLDC_controller.c ****      *  Product: '<S14>/Divide1'
1306:Src/BLDC_controller.c ****      *  Product: '<S14>/Divide3'
1307:Src/BLDC_controller.c ****      *  RelationalOperator: '<S14>/Relational Operator7'
1308:Src/BLDC_controller.c ****      *  Sum: '<S14>/Sum3'
1309:Src/BLDC_controller.c ****      *  Switch: '<S14>/Switch3'
1310:Src/BLDC_controller.c ****      */
1311:Src/BLDC_controller.c ****     if (rtb_LogicalOperator) {
 2432              		.loc 1 1311 5 is_stmt 1 view .LVU809
 2433              		.loc 1 1311 8 is_stmt 0 view .LVU810
 2434 025c 099B     		ldr	r3, [sp, #36]
 2435 025e 002B     		cmp	r3, #0
 2436 0260 00F08280 		beq	.L187
1312:Src/BLDC_controller.c ****       /* MinMax: '<S14>/MinMax' */
1313:Src/BLDC_controller.c ****       rtb_Merge_m = rtb_Switch1_l;
 2437              		.loc 1 1313 7 is_stmt 1 view .LVU811
 2438              	.LVL231:
ARM GAS  /tmp/cccGHnrd.s 			page 69


1314:Src/BLDC_controller.c ****       if (!(rtb_Merge_m < rtDW->z_counterRawPrev)) {
 2439              		.loc 1 1314 7 view .LVU812
 2440              		.loc 1 1314 31 is_stmt 0 view .LVU813
 2441 0264 B4F95600 		ldrsh	r0, [r4, #86]
 2442              	.LVL232:
 2443              		.loc 1 1314 10 view .LVU814
 2444 0268 0B9B     		ldr	r3, [sp, #44]
 2445 026a 9842     		cmp	r0, r3
 2446 026c 00DC     		bgt	.L188
1315:Src/BLDC_controller.c ****         rtb_Merge_m = rtDW->z_counterRawPrev;
 2447              		.loc 1 1315 21 view .LVU815
 2448 026e 0346     		mov	r3, r0
 2449              	.L188:
 2450              	.LVL233:
1316:Src/BLDC_controller.c ****       }
1317:Src/BLDC_controller.c **** 
1318:Src/BLDC_controller.c ****       /* End of MinMax: '<S14>/MinMax' */
1319:Src/BLDC_controller.c **** 
1320:Src/BLDC_controller.c ****       /* Switch: '<S14>/Switch3' incorporates:
1321:Src/BLDC_controller.c ****        *  Constant: '<S11>/vec_hallToPos'
1322:Src/BLDC_controller.c ****        *  Constant: '<S14>/Constant16'
1323:Src/BLDC_controller.c ****        *  RelationalOperator: '<S14>/Relational Operator7'
1324:Src/BLDC_controller.c ****        *  Selector: '<S11>/Selector'
1325:Src/BLDC_controller.c ****        *  Sum: '<S14>/Sum1'
1326:Src/BLDC_controller.c ****        */
1327:Src/BLDC_controller.c ****       if (rtDW->Switch2_e == 1) {
 2451              		.loc 1 1327 7 is_stmt 1 view .LVU816
 2452              		.loc 1 1327 15 is_stmt 0 view .LVU817
 2453 0270 94F98E10 		ldrsb	r1, [r4, #142]
 2454              	.LVL234:
 2455              		.loc 1 1327 10 view .LVU818
 2456 0274 0129     		cmp	r1, #1
 2457 0276 67D0     		beq	.L438
1328:Src/BLDC_controller.c ****         rtb_Sum2_h = rtConstP.vec_hallToPos_Value[Sum];
1329:Src/BLDC_controller.c ****       } else {
1330:Src/BLDC_controller.c ****         rtb_Sum2_h = (int8_T)(rtConstP.vec_hallToPos_Value[Sum] + 1);
 2458              		.loc 1 1330 9 is_stmt 1 view .LVU819
 2459              		.loc 1 1330 59 is_stmt 0 view .LVU820
 2460 0278 374A     		ldr	r2, .L469
 2461 027a DDF81CC0 		ldr	ip, [sp, #28]
 2462 027e 6244     		add	r2, r2, ip
 2463 0280 92F88827 		ldrb	r2, [r2, #1928]	@ zero_extendqisi2
 2464              		.loc 1 1330 65 view .LVU821
 2465 0284 0132     		adds	r2, r2, #1
 2466              		.loc 1 1330 20 view .LVU822
 2467 0286 52B2     		sxtb	r2, r2
 2468              	.LVL235:
 2469              	.L190:
1331:Src/BLDC_controller.c ****       }
1332:Src/BLDC_controller.c **** 
1333:Src/BLDC_controller.c ****       rtb_Merge_m = (int16_T)(((int16_T)((int16_T)((rtb_Merge_m << 14) /
 2470              		.loc 1 1333 7 is_stmt 1 view .LVU823
 2471              		.loc 1 1333 65 is_stmt 0 view .LVU824
 2472 0288 9B03     		lsls	r3, r3, #14
 2473              	.LVL236:
 2474              		.loc 1 1333 72 view .LVU825
 2475 028a 93FBF0F3 		sdiv	r3, r3, r0
ARM GAS  /tmp/cccGHnrd.s 			page 70


 2476              		.loc 1 1333 42 view .LVU826
 2477 028e 9BB2     		uxth	r3, r3
1334:Src/BLDC_controller.c ****         rtDW->z_counterRawPrev) * rtDW->Switch2_e) + (rtb_Sum2_h << 14)) >> 2);
 2478              		.loc 1 1334 39 view .LVU827
 2479 0290 89B2     		uxth	r1, r1
 2480              		.loc 1 1334 33 view .LVU828
 2481 0292 01FB03F3 		mul	r3, r1, r3
1333:Src/BLDC_controller.c ****         rtDW->z_counterRawPrev) * rtDW->Switch2_e) + (rtb_Sum2_h << 14)) >> 2);
 2482              		.loc 1 1333 32 view .LVU829
 2483 0296 1BB2     		sxth	r3, r3
 2484              		.loc 1 1334 52 view .LVU830
 2485 0298 03EB8233 		add	r3, r3, r2, lsl #14
1333:Src/BLDC_controller.c ****         rtDW->z_counterRawPrev) * rtDW->Switch2_e) + (rtb_Sum2_h << 14)) >> 2);
 2486              		.loc 1 1333 19 view .LVU831
 2487 029c 43F38F03 		sbfx	r3, r3, #2, #16
 2488              	.LVL237:
 2489              	.L191:
1335:Src/BLDC_controller.c ****     } else {
1336:Src/BLDC_controller.c ****       if (rtDW->Switch2_e == 1) {
1337:Src/BLDC_controller.c ****         /* Switch: '<S14>/Switch3' incorporates:
1338:Src/BLDC_controller.c ****          *  Constant: '<S11>/vec_hallToPos'
1339:Src/BLDC_controller.c ****          *  Selector: '<S11>/Selector'
1340:Src/BLDC_controller.c ****          */
1341:Src/BLDC_controller.c ****         rtb_Sum2_h = rtConstP.vec_hallToPos_Value[Sum];
1342:Src/BLDC_controller.c ****       } else {
1343:Src/BLDC_controller.c ****         /* Switch: '<S14>/Switch3' incorporates:
1344:Src/BLDC_controller.c ****          *  Constant: '<S11>/vec_hallToPos'
1345:Src/BLDC_controller.c ****          *  Selector: '<S11>/Selector'
1346:Src/BLDC_controller.c ****          *  Sum: '<S14>/Sum1'
1347:Src/BLDC_controller.c ****          */
1348:Src/BLDC_controller.c ****         rtb_Sum2_h = (int8_T)(rtConstP.vec_hallToPos_Value[Sum] + 1);
1349:Src/BLDC_controller.c ****       }
1350:Src/BLDC_controller.c **** 
1351:Src/BLDC_controller.c ****       rtb_Merge_m = (int16_T)(rtb_Sum2_h << 12);
1352:Src/BLDC_controller.c ****     }
1353:Src/BLDC_controller.c **** 
1354:Src/BLDC_controller.c ****     /* End of Switch: '<S14>/Switch2' */
1355:Src/BLDC_controller.c **** 
1356:Src/BLDC_controller.c ****     /* MinMax: '<S14>/MinMax1' incorporates:
1357:Src/BLDC_controller.c ****      *  Constant: '<S14>/Constant1'
1358:Src/BLDC_controller.c ****      */
1359:Src/BLDC_controller.c ****     if (!(rtb_Merge_m > 0)) {
 2490              		.loc 1 1359 5 is_stmt 1 view .LVU832
 2491              		.loc 1 1359 8 is_stmt 0 view .LVU833
 2492 02a0 002B     		cmp	r3, #0
 2493 02a2 75DD     		ble	.L439
 2494              	.LVL238:
 2495              	.L194:
1360:Src/BLDC_controller.c ****       rtb_Merge_m = 0;
1361:Src/BLDC_controller.c ****     }
1362:Src/BLDC_controller.c **** 
1363:Src/BLDC_controller.c ****     /* End of MinMax: '<S14>/MinMax1' */
1364:Src/BLDC_controller.c **** 
1365:Src/BLDC_controller.c ****     /* SignalConversion: '<S14>/Signal Conversion2' incorporates:
1366:Src/BLDC_controller.c ****      *  Product: '<S14>/Divide2'
1367:Src/BLDC_controller.c ****      */
1368:Src/BLDC_controller.c ****     rtb_Merge_m = (int16_T)((15 * rtb_Merge_m) >> 4);
ARM GAS  /tmp/cccGHnrd.s 			page 71


 2496              		.loc 1 1368 5 is_stmt 1 view .LVU834
 2497              		.loc 1 1368 33 is_stmt 0 view .LVU835
 2498 02a4 C3EB0313 		rsb	r3, r3, r3, lsl #4
 2499              	.LVL239:
 2500              		.loc 1 1368 17 view .LVU836
 2501 02a8 43F30F13 		sbfx	r3, r3, #4, #16
 2502 02ac 0893     		str	r3, [sp, #32]
 2503              	.LVL240:
 2504              	.L195:
1369:Src/BLDC_controller.c **** 
1370:Src/BLDC_controller.c ****     /* End of Outputs for SubSystem: '<S3>/F01_05_Electrical_Angle_Estimation' */
1371:Src/BLDC_controller.c ****   } else {
1372:Src/BLDC_controller.c ****     /* Outputs for IfAction SubSystem: '<S3>/F01_06_Electrical_Angle_Measurement' incorporates:
1373:Src/BLDC_controller.c ****      *  ActionPort: '<S15>/Action Port'
1374:Src/BLDC_controller.c ****      */
1375:Src/BLDC_controller.c ****     /* Sum: '<S15>/Sum1' incorporates:
1376:Src/BLDC_controller.c ****      *  Constant: '<S15>/Constant2'
1377:Src/BLDC_controller.c ****      *  Constant: '<S15>/n_polePairs'
1378:Src/BLDC_controller.c ****      *  Inport: '<Root>/a_mechAngle'
1379:Src/BLDC_controller.c ****      *  Product: '<S15>/Divide'
1380:Src/BLDC_controller.c ****      */
1381:Src/BLDC_controller.c ****     rtb_Sum1_jt = rtU->a_mechAngle * rtP->n_polePairs - 480;
1382:Src/BLDC_controller.c **** 
1383:Src/BLDC_controller.c ****     /* DataTypeConversion: '<S15>/Data Type Conversion20' incorporates:
1384:Src/BLDC_controller.c ****      *  Constant: '<S15>/a_elecPeriod'
1385:Src/BLDC_controller.c ****      *  Product: '<S19>/Divide2'
1386:Src/BLDC_controller.c ****      *  Product: '<S19>/Divide3'
1387:Src/BLDC_controller.c ****      *  Sum: '<S19>/Sum3'
1388:Src/BLDC_controller.c ****      */
1389:Src/BLDC_controller.c ****     rtb_Merge_m = (int16_T)((int16_T)(rtb_Sum1_jt - ((int16_T)((int16_T)
1390:Src/BLDC_controller.c ****       div_nde_s32_floor(rtb_Sum1_jt, 5760) * 360) << 4)) << 2);
1391:Src/BLDC_controller.c **** 
1392:Src/BLDC_controller.c ****     /* End of Outputs for SubSystem: '<S3>/F01_06_Electrical_Angle_Measurement' */
1393:Src/BLDC_controller.c ****   }
1394:Src/BLDC_controller.c **** 
1395:Src/BLDC_controller.c ****   /* End of If: '<S3>/If1' */
1396:Src/BLDC_controller.c **** 
1397:Src/BLDC_controller.c ****   /* If: '<S7>/If1' incorporates:
1398:Src/BLDC_controller.c ****    *  Constant: '<S1>/z_ctrlTypSel'
1399:Src/BLDC_controller.c ****    */
1400:Src/BLDC_controller.c ****   rtb_Sum2_h = rtDW->If1_ActiveSubsystem;
 2505              		.loc 1 1400 3 is_stmt 1 view .LVU837
 2506              		.loc 1 1400 14 is_stmt 0 view .LVU838
 2507 02ae 94F99030 		ldrsb	r3, [r4, #144]
 2508              	.LVL241:
1401:Src/BLDC_controller.c ****   UnitDelay3 = -1;
 2509              		.loc 1 1401 3 is_stmt 1 view .LVU839
1402:Src/BLDC_controller.c ****   if (rtP->z_ctrlTypSel == 2) {
 2510              		.loc 1 1402 3 view .LVU840
 2511              		.loc 1 1402 10 is_stmt 0 view .LVU841
 2512 02b2 95F8F920 		ldrb	r2, [r5, #249]	@ zero_extendqisi2
 2513              		.loc 1 1402 6 view .LVU842
 2514 02b6 022A     		cmp	r2, #2
 2515 02b8 00F08C80 		beq	.L357
1401:Src/BLDC_controller.c ****   UnitDelay3 = -1;
 2516              		.loc 1 1401 14 view .LVU843
 2517 02bc 4FF0FF3B 		mov	fp, #-1
ARM GAS  /tmp/cccGHnrd.s 			page 72


 2518              	.L196:
 2519              	.LVL242:
1403:Src/BLDC_controller.c ****     UnitDelay3 = 0;
1404:Src/BLDC_controller.c ****   }
1405:Src/BLDC_controller.c **** 
1406:Src/BLDC_controller.c ****   rtDW->If1_ActiveSubsystem = UnitDelay3;
 2520              		.loc 1 1406 3 is_stmt 1 view .LVU844
 2521              		.loc 1 1406 29 is_stmt 0 view .LVU845
 2522 02c0 84F890B0 		strb	fp, [r4, #144]
1407:Src/BLDC_controller.c ****   if ((rtb_Sum2_h != UnitDelay3) && (rtb_Sum2_h == 0)) {
 2523              		.loc 1 1407 3 is_stmt 1 view .LVU846
 2524              		.loc 1 1407 6 is_stmt 0 view .LVU847
 2525 02c4 9B45     		cmp	fp, r3
 2526 02c6 17D0     		beq	.L197
 2527              		.loc 1 1407 34 discriminator 1 view .LVU848
 2528 02c8 B3B9     		cbnz	r3, .L197
1408:Src/BLDC_controller.c ****     /* Disable for If: '<S45>/If2' */
1409:Src/BLDC_controller.c ****     if (rtDW->If2_ActiveSubsystem_a == 0) {
 2529              		.loc 1 1409 5 is_stmt 1 view .LVU849
 2530              		.loc 1 1409 13 is_stmt 0 view .LVU850
 2531 02ca 94F99830 		ldrsb	r3, [r4, #152]
 2532              	.LVL243:
 2533              		.loc 1 1409 8 view .LVU851
 2534 02ce 2BB9     		cbnz	r3, .L198
1410:Src/BLDC_controller.c ****       /* Disable for Outport: '<S50>/iq' */
1411:Src/BLDC_controller.c ****       rtDW->DataTypeConversion[0] = 0;
 2535              		.loc 1 1411 7 is_stmt 1 view .LVU852
 2536              		.loc 1 1411 35 is_stmt 0 view .LVU853
 2537 02d0 A4F85230 		strh	r3, [r4, #82]	@ movhi
1412:Src/BLDC_controller.c **** 
1413:Src/BLDC_controller.c ****       /* Disable for Outport: '<S50>/iqAbs' */
1414:Src/BLDC_controller.c ****       rtDW->Abs5_h = 0;
 2538              		.loc 1 1414 7 is_stmt 1 view .LVU854
 2539              		.loc 1 1414 20 is_stmt 0 view .LVU855
 2540 02d4 A4F87830 		strh	r3, [r4, #120]	@ movhi
1415:Src/BLDC_controller.c **** 
1416:Src/BLDC_controller.c ****       /* Disable for Outport: '<S50>/id' */
1417:Src/BLDC_controller.c ****       rtDW->DataTypeConversion[1] = 0;
 2541              		.loc 1 1417 7 is_stmt 1 view .LVU856
 2542              		.loc 1 1417 35 is_stmt 0 view .LVU857
 2543 02d8 A4F85430 		strh	r3, [r4, #84]	@ movhi
 2544              	.L198:
1418:Src/BLDC_controller.c ****     }
1419:Src/BLDC_controller.c **** 
1420:Src/BLDC_controller.c ****     rtDW->If2_ActiveSubsystem_a = -1;
 2545              		.loc 1 1420 5 is_stmt 1 view .LVU858
 2546              		.loc 1 1420 33 is_stmt 0 view .LVU859
 2547 02dc FF23     		movs	r3, #255
 2548 02de 84F89830 		strb	r3, [r4, #152]
1421:Src/BLDC_controller.c **** 
1422:Src/BLDC_controller.c ****     /* End of Disable for If: '<S45>/If2' */
1423:Src/BLDC_controller.c **** 
1424:Src/BLDC_controller.c ****     /* Disable for Outport: '<S45>/r_sin' */
1425:Src/BLDC_controller.c ****     rtDW->r_sin_M1 = 0;
 2549              		.loc 1 1425 5 is_stmt 1 view .LVU860
 2550              		.loc 1 1425 20 is_stmt 0 view .LVU861
 2551 02e2 0023     		movs	r3, #0
ARM GAS  /tmp/cccGHnrd.s 			page 73


 2552 02e4 A4F87C30 		strh	r3, [r4, #124]	@ movhi
1426:Src/BLDC_controller.c **** 
1427:Src/BLDC_controller.c ****     /* Disable for Outport: '<S45>/r_cos' */
1428:Src/BLDC_controller.c ****     rtDW->r_cos_M1 = 0;
 2553              		.loc 1 1428 5 is_stmt 1 view .LVU862
 2554              		.loc 1 1428 20 is_stmt 0 view .LVU863
 2555 02e8 A4F87E30 		strh	r3, [r4, #126]	@ movhi
1429:Src/BLDC_controller.c **** 
1430:Src/BLDC_controller.c ****     /* Disable for Outport: '<S45>/iq' */
1431:Src/BLDC_controller.c ****     rtDW->DataTypeConversion[0] = 0;
 2556              		.loc 1 1431 5 is_stmt 1 view .LVU864
 2557              		.loc 1 1431 33 is_stmt 0 view .LVU865
 2558 02ec A4F85230 		strh	r3, [r4, #82]	@ movhi
1432:Src/BLDC_controller.c **** 
1433:Src/BLDC_controller.c ****     /* Disable for Outport: '<S45>/id' */
1434:Src/BLDC_controller.c ****     rtDW->DataTypeConversion[1] = 0;
 2559              		.loc 1 1434 5 is_stmt 1 view .LVU866
 2560              		.loc 1 1434 33 is_stmt 0 view .LVU867
 2561 02f0 A4F85430 		strh	r3, [r4, #84]	@ movhi
1435:Src/BLDC_controller.c **** 
1436:Src/BLDC_controller.c ****     /* Disable for Outport: '<S45>/iqAbs' */
1437:Src/BLDC_controller.c ****     rtDW->Abs5_h = 0;
 2562              		.loc 1 1437 5 is_stmt 1 view .LVU868
 2563              		.loc 1 1437 18 is_stmt 0 view .LVU869
 2564 02f4 A4F87830 		strh	r3, [r4, #120]	@ movhi
 2565              	.L197:
1438:Src/BLDC_controller.c ****   }
1439:Src/BLDC_controller.c **** 
1440:Src/BLDC_controller.c ****   if (UnitDelay3 == 0) {
 2566              		.loc 1 1440 3 is_stmt 1 view .LVU870
 2567              		.loc 1 1440 6 is_stmt 0 view .LVU871
 2568 02f8 BBF1000F 		cmp	fp, #0
 2569 02fc 40F04281 		bne	.L199
1441:Src/BLDC_controller.c ****     /* Outputs for IfAction SubSystem: '<S7>/Clarke_Park_Transform_Forward' incorporates:
1442:Src/BLDC_controller.c ****      *  ActionPort: '<S45>/Action Port'
1443:Src/BLDC_controller.c ****      */
1444:Src/BLDC_controller.c ****     /* If: '<S49>/If1' incorporates:
1445:Src/BLDC_controller.c ****      *  Constant: '<S49>/z_selPhaCurMeasABC'
1446:Src/BLDC_controller.c ****      */
1447:Src/BLDC_controller.c ****     if (rtP->z_selPhaCurMeasABC == 0) {
 2570              		.loc 1 1447 5 is_stmt 1 view .LVU872
 2571              		.loc 1 1447 12 is_stmt 0 view .LVU873
 2572 0300 95F8FA30 		ldrb	r3, [r5, #250]	@ zero_extendqisi2
 2573              		.loc 1 1447 8 view .LVU874
 2574 0304 002B     		cmp	r3, #0
 2575 0306 40F0B580 		bne	.L200
1448:Src/BLDC_controller.c ****       /* Outputs for IfAction SubSystem: '<S49>/Clarke_PhasesAB' incorporates:
1449:Src/BLDC_controller.c ****        *  ActionPort: '<S53>/Action Port'
1450:Src/BLDC_controller.c ****        */
1451:Src/BLDC_controller.c ****       /* Gain: '<S53>/Gain4' */
1452:Src/BLDC_controller.c ****       rtb_Gain3 = 18919 * rtb_Saturation;
 2576              		.loc 1 1452 7 is_stmt 1 view .LVU875
 2577              		.loc 1 1452 17 is_stmt 0 view .LVU876
 2578 030a 44F6E713 		movw	r3, #18919
 2579 030e 03FB0AF2 		mul	r2, r3, r10
 2580              	.LVL244:
1453:Src/BLDC_controller.c **** 
ARM GAS  /tmp/cccGHnrd.s 			page 74


1454:Src/BLDC_controller.c ****       /* Gain: '<S53>/Gain2' */
1455:Src/BLDC_controller.c ****       rtb_Sum1_jt = 18919 * rtb_Saturation1;
 2581              		.loc 1 1455 7 is_stmt 1 view .LVU877
 2582              		.loc 1 1455 19 is_stmt 0 view .LVU878
 2583 0312 03FB08F3 		mul	r3, r3, r8
 2584              	.LVL245:
1456:Src/BLDC_controller.c **** 
1457:Src/BLDC_controller.c ****       /* Sum: '<S53>/Sum1' incorporates:
1458:Src/BLDC_controller.c ****        *  Gain: '<S53>/Gain2'
1459:Src/BLDC_controller.c ****        *  Gain: '<S53>/Gain4'
1460:Src/BLDC_controller.c ****        */
1461:Src/BLDC_controller.c ****       rtb_Gain3 = (((rtb_Gain3 < 0 ? 32767 : 0) + rtb_Gain3) >> 15) + (int16_T)
 2585              		.loc 1 1461 7 is_stmt 1 view .LVU879
 2586              		.loc 1 1461 44 is_stmt 0 view .LVU880
 2587 0316 002A     		cmp	r2, #0
 2588 0318 5FDB     		blt	.L440
 2589              		.loc 1 1461 44 discriminator 2 view .LVU881
 2590 031a 4FF00008 		mov	r8, #0
 2591              	.LVL246:
 2592              	.L201:
 2593              		.loc 1 1461 49 discriminator 4 view .LVU882
 2594 031e 9044     		add	r8, r8, r2
 2595              		.loc 1 1461 62 discriminator 4 view .LVU883
 2596 0320 4FEAE838 		asr	r8, r8, #15
1462:Src/BLDC_controller.c ****         (((rtb_Sum1_jt < 0 ? 16383 : 0) + rtb_Sum1_jt) >> 14);
 2597              		.loc 1 1462 36 view .LVU884
 2598 0324 002B     		cmp	r3, #0
 2599 0326 5BDB     		blt	.L441
 2600              		.loc 1 1462 36 discriminator 2 view .LVU885
 2601 0328 0022     		movs	r2, #0
 2602              	.LVL247:
 2603              	.L202:
 2604              		.loc 1 1462 41 discriminator 4 view .LVU886
 2605 032a 1344     		add	r3, r3, r2
 2606              	.LVL248:
1461:Src/BLDC_controller.c ****         (((rtb_Sum1_jt < 0 ? 16383 : 0) + rtb_Sum1_jt) >> 14);
 2607              		.loc 1 1461 71 view .LVU887
 2608 032c 43F38F33 		sbfx	r3, r3, #14, #16
1461:Src/BLDC_controller.c ****         (((rtb_Sum1_jt < 0 ? 16383 : 0) + rtb_Sum1_jt) >> 14);
 2609              		.loc 1 1461 17 view .LVU888
 2610 0330 4344     		add	r3, r3, r8
 2611              	.LVL249:
1463:Src/BLDC_controller.c ****       if (rtb_Gain3 > 32767) {
 2612              		.loc 1 1463 7 is_stmt 1 view .LVU889
 2613              		.loc 1 1463 10 is_stmt 0 view .LVU890
 2614 0332 B3F5004F 		cmp	r3, #32768
 2615 0336 56DA     		bge	.L360
1464:Src/BLDC_controller.c ****         rtb_Gain3 = 32767;
1465:Src/BLDC_controller.c ****       } else {
1466:Src/BLDC_controller.c ****         if (rtb_Gain3 < -32768) {
 2616              		.loc 1 1466 9 is_stmt 1 view .LVU891
 2617              		.loc 1 1466 12 is_stmt 0 view .LVU892
 2618 0338 13F5004F 		cmn	r3, #32768
 2619 033c 55DA     		bge	.L203
1467:Src/BLDC_controller.c ****           rtb_Gain3 = -32768;
 2620              		.loc 1 1467 21 view .LVU893
 2621 033e 094B     		ldr	r3, .L469+12
ARM GAS  /tmp/cccGHnrd.s 			page 75


 2622              	.LVL250:
 2623              		.loc 1 1467 21 view .LVU894
 2624 0340 53E0     		b	.L203
 2625              	.LVL251:
 2626              	.L354:
1289:Src/BLDC_controller.c ****   } else {
 2627              		.loc 1 1289 21 view .LVU895
 2628 0342 DFF81C80 		ldr	r8, .L469+8
 2629 0346 86E7     		b	.L185
 2630              	.LVL252:
 2631              	.L438:
1328:Src/BLDC_controller.c ****       } else {
 2632              		.loc 1 1328 9 is_stmt 1 view .LVU896
1328:Src/BLDC_controller.c ****       } else {
 2633              		.loc 1 1328 20 is_stmt 0 view .LVU897
 2634 0348 034A     		ldr	r2, .L469
 2635 034a DDF81CC0 		ldr	ip, [sp, #28]
 2636 034e 6244     		add	r2, r2, ip
 2637 0350 92F98827 		ldrsb	r2, [r2, #1928]
 2638              	.LVL253:
1328:Src/BLDC_controller.c ****       } else {
 2639              		.loc 1 1328 20 view .LVU898
 2640 0354 98E7     		b	.L190
 2641              	.L470:
 2642 0356 00BF     		.align	2
 2643              	.L469:
 2644 0358 00000000 		.word	rtConstP
 2645 035c C195FFFF 		.word	-27199
 2646 0360 C095FFFF 		.word	-27200
 2647 0364 0080FFFF 		.word	-32768
 2648              	.LVL254:
 2649              	.L187:
1336:Src/BLDC_controller.c ****         /* Switch: '<S14>/Switch3' incorporates:
 2650              		.loc 1 1336 7 is_stmt 1 view .LVU899
1336:Src/BLDC_controller.c ****         /* Switch: '<S14>/Switch3' incorporates:
 2651              		.loc 1 1336 15 is_stmt 0 view .LVU900
 2652 0368 94F98E30 		ldrsb	r3, [r4, #142]
1336:Src/BLDC_controller.c ****         /* Switch: '<S14>/Switch3' incorporates:
 2653              		.loc 1 1336 10 view .LVU901
 2654 036c 012B     		cmp	r3, #1
 2655 036e 09D0     		beq	.L442
1348:Src/BLDC_controller.c ****       }
 2656              		.loc 1 1348 9 is_stmt 1 view .LVU902
1348:Src/BLDC_controller.c ****       }
 2657              		.loc 1 1348 59 is_stmt 0 view .LVU903
 2658 0370 BC4B     		ldr	r3, .L471
 2659 0372 079A     		ldr	r2, [sp, #28]
 2660 0374 1344     		add	r3, r3, r2
 2661 0376 93F88837 		ldrb	r3, [r3, #1928]	@ zero_extendqisi2
1348:Src/BLDC_controller.c ****       }
 2662              		.loc 1 1348 65 view .LVU904
 2663 037a 0133     		adds	r3, r3, #1
1348:Src/BLDC_controller.c ****       }
 2664              		.loc 1 1348 20 view .LVU905
 2665 037c 5BB2     		sxtb	r3, r3
 2666              	.LVL255:
 2667              	.L193:
ARM GAS  /tmp/cccGHnrd.s 			page 76


1351:Src/BLDC_controller.c ****     }
 2668              		.loc 1 1351 7 is_stmt 1 view .LVU906
1351:Src/BLDC_controller.c ****     }
 2669              		.loc 1 1351 19 is_stmt 0 view .LVU907
 2670 037e 1B03     		lsls	r3, r3, #12
 2671              	.LVL256:
1351:Src/BLDC_controller.c ****     }
 2672              		.loc 1 1351 19 view .LVU908
 2673 0380 1BB2     		sxth	r3, r3
 2674              	.LVL257:
1351:Src/BLDC_controller.c ****     }
 2675              		.loc 1 1351 19 view .LVU909
 2676 0382 8DE7     		b	.L191
 2677              	.LVL258:
 2678              	.L442:
1341:Src/BLDC_controller.c ****       } else {
 2679              		.loc 1 1341 9 is_stmt 1 view .LVU910
1341:Src/BLDC_controller.c ****       } else {
 2680              		.loc 1 1341 20 is_stmt 0 view .LVU911
 2681 0384 B74B     		ldr	r3, .L471
 2682 0386 079A     		ldr	r2, [sp, #28]
 2683 0388 1344     		add	r3, r3, r2
 2684 038a 93F98837 		ldrsb	r3, [r3, #1928]
 2685              	.LVL259:
1341:Src/BLDC_controller.c ****       } else {
 2686              		.loc 1 1341 20 view .LVU912
 2687 038e F6E7     		b	.L193
 2688              	.LVL260:
 2689              	.L439:
1360:Src/BLDC_controller.c ****     }
 2690              		.loc 1 1360 19 view .LVU913
 2691 0390 0023     		movs	r3, #0
 2692              	.LVL261:
1360:Src/BLDC_controller.c ****     }
 2693              		.loc 1 1360 19 view .LVU914
 2694 0392 87E7     		b	.L194
 2695              	.LVL262:
 2696              	.L186:
1381:Src/BLDC_controller.c **** 
 2697              		.loc 1 1381 5 is_stmt 1 view .LVU915
1381:Src/BLDC_controller.c **** 
 2698              		.loc 1 1381 22 is_stmt 0 view .LVU916
 2699 0394 B6F90EB0 		ldrsh	fp, [r6, #14]
1381:Src/BLDC_controller.c **** 
 2700              		.loc 1 1381 41 view .LVU917
 2701 0398 95F8F830 		ldrb	r3, [r5, #248]	@ zero_extendqisi2
1381:Src/BLDC_controller.c **** 
 2702              		.loc 1 1381 36 view .LVU918
 2703 039c 03FB0BFB 		mul	fp, r3, fp
1381:Src/BLDC_controller.c **** 
 2704              		.loc 1 1381 17 view .LVU919
 2705 03a0 ABF5F07B 		sub	fp, fp, #480
 2706              	.LVL263:
1389:Src/BLDC_controller.c ****       div_nde_s32_floor(rtb_Sum1_jt, 5760) * 360) << 4)) << 2);
 2707              		.loc 1 1389 5 is_stmt 1 view .LVU920
1390:Src/BLDC_controller.c **** 
 2708              		.loc 1 1390 7 is_stmt 0 view .LVU921
ARM GAS  /tmp/cccGHnrd.s 			page 77


 2709 03a4 4FF4B451 		mov	r1, #5760
 2710              	.LVL264:
1390:Src/BLDC_controller.c **** 
 2711              		.loc 1 1390 7 view .LVU922
 2712 03a8 5846     		mov	r0, fp
 2713              	.LVL265:
1390:Src/BLDC_controller.c **** 
 2714              		.loc 1 1390 7 view .LVU923
 2715 03aa FFF7FEFF 		bl	div_nde_s32_floor
 2716              	.LVL266:
1389:Src/BLDC_controller.c ****       div_nde_s32_floor(rtb_Sum1_jt, 5760) * 360) << 4)) << 2);
 2717              		.loc 1 1389 64 view .LVU924
 2718 03ae 80B2     		uxth	r0, r0
1390:Src/BLDC_controller.c **** 
 2719              		.loc 1 1390 44 view .LVU925
 2720 03b0 00EB4000 		add	r0, r0, r0, lsl #1
 2721 03b4 C0EB0013 		rsb	r3, r0, r0, lsl #4
 2722 03b8 DB00     		lsls	r3, r3, #3
 2723 03ba 9BB2     		uxth	r3, r3
1390:Src/BLDC_controller.c **** 
 2724              		.loc 1 1390 51 view .LVU926
 2725 03bc 1B01     		lsls	r3, r3, #4
 2726 03be 9BB2     		uxth	r3, r3
1389:Src/BLDC_controller.c ****       div_nde_s32_floor(rtb_Sum1_jt, 5760) * 360) << 4)) << 2);
 2727              		.loc 1 1389 51 view .LVU927
 2728 03c0 ABEB030B 		sub	fp, fp, r3
 2729              	.LVL267:
1389:Src/BLDC_controller.c ****       div_nde_s32_floor(rtb_Sum1_jt, 5760) * 360) << 4)) << 2);
 2730              		.loc 1 1389 29 view .LVU928
 2731 03c4 0FFA8BFB 		sxth	fp, fp
1389:Src/BLDC_controller.c ****       div_nde_s32_floor(rtb_Sum1_jt, 5760) * 360) << 4)) << 2);
 2732              		.loc 1 1389 17 view .LVU929
 2733 03c8 4FEA8B0B 		lsl	fp, fp, #2
 2734 03cc 0FFA8BF3 		sxth	r3, fp
 2735 03d0 0893     		str	r3, [sp, #32]
 2736              	.LVL268:
1389:Src/BLDC_controller.c ****       div_nde_s32_floor(rtb_Sum1_jt, 5760) * 360) << 4)) << 2);
 2737              		.loc 1 1389 17 view .LVU930
 2738 03d2 6CE7     		b	.L195
 2739              	.LVL269:
 2740              	.L357:
1403:Src/BLDC_controller.c ****   }
 2741              		.loc 1 1403 16 view .LVU931
 2742 03d4 4FF0000B 		mov	fp, #0
 2743 03d8 72E7     		b	.L196
 2744              	.LVL270:
 2745              	.L440:
1461:Src/BLDC_controller.c ****         (((rtb_Sum1_jt < 0 ? 16383 : 0) + rtb_Sum1_jt) >> 14);
 2746              		.loc 1 1461 44 discriminator 1 view .LVU932
 2747 03da 47F6FF78 		movw	r8, #32767
 2748              	.LVL271:
1461:Src/BLDC_controller.c ****         (((rtb_Sum1_jt < 0 ? 16383 : 0) + rtb_Sum1_jt) >> 14);
 2749              		.loc 1 1461 44 discriminator 1 view .LVU933
 2750 03de 9EE7     		b	.L201
 2751              	.L441:
1462:Src/BLDC_controller.c ****       if (rtb_Gain3 > 32767) {
 2752              		.loc 1 1462 36 discriminator 1 view .LVU934
ARM GAS  /tmp/cccGHnrd.s 			page 78


 2753 03e0 43F6FF72 		movw	r2, #16383
 2754              	.LVL272:
1462:Src/BLDC_controller.c ****       if (rtb_Gain3 > 32767) {
 2755              		.loc 1 1462 36 discriminator 1 view .LVU935
 2756 03e4 A1E7     		b	.L202
 2757              	.LVL273:
 2758              	.L360:
1464:Src/BLDC_controller.c ****       } else {
 2759              		.loc 1 1464 19 view .LVU936
 2760 03e6 47F6FF73 		movw	r3, #32767
 2761              	.LVL274:
 2762              	.L203:
1468:Src/BLDC_controller.c ****         }
1469:Src/BLDC_controller.c ****       }
1470:Src/BLDC_controller.c **** 
1471:Src/BLDC_controller.c ****       rtb_Merge1 = (int16_T)rtb_Gain3;
 2763              		.loc 1 1471 7 is_stmt 1 view .LVU937
 2764              		.loc 1 1471 18 is_stmt 0 view .LVU938
 2765 03ea 0FFA83F8 		sxth	r8, r3
 2766              	.LVL275:
 2767              	.L204:
1472:Src/BLDC_controller.c **** 
1473:Src/BLDC_controller.c ****       /* End of Sum: '<S53>/Sum1' */
1474:Src/BLDC_controller.c ****       /* End of Outputs for SubSystem: '<S49>/Clarke_PhasesAB' */
1475:Src/BLDC_controller.c ****     } else if (rtP->z_selPhaCurMeasABC == 1) {
1476:Src/BLDC_controller.c ****       /* Outputs for IfAction SubSystem: '<S49>/Clarke_PhasesBC' incorporates:
1477:Src/BLDC_controller.c ****        *  ActionPort: '<S55>/Action Port'
1478:Src/BLDC_controller.c ****        */
1479:Src/BLDC_controller.c ****       /* Sum: '<S55>/Sum3' */
1480:Src/BLDC_controller.c ****       rtb_Gain3 = rtb_Saturation - rtb_Saturation1;
1481:Src/BLDC_controller.c ****       if (rtb_Gain3 > 32767) {
1482:Src/BLDC_controller.c ****         rtb_Gain3 = 32767;
1483:Src/BLDC_controller.c ****       } else {
1484:Src/BLDC_controller.c ****         if (rtb_Gain3 < -32768) {
1485:Src/BLDC_controller.c ****           rtb_Gain3 = -32768;
1486:Src/BLDC_controller.c ****         }
1487:Src/BLDC_controller.c ****       }
1488:Src/BLDC_controller.c **** 
1489:Src/BLDC_controller.c ****       /* Gain: '<S55>/Gain2' incorporates:
1490:Src/BLDC_controller.c ****        *  Sum: '<S55>/Sum3'
1491:Src/BLDC_controller.c ****        */
1492:Src/BLDC_controller.c ****       rtb_Gain3 *= 18919;
1493:Src/BLDC_controller.c ****       rtb_Merge1 = (int16_T)(((rtb_Gain3 < 0 ? 32767 : 0) + rtb_Gain3) >> 15);
1494:Src/BLDC_controller.c **** 
1495:Src/BLDC_controller.c ****       /* Sum: '<S55>/Sum1' */
1496:Src/BLDC_controller.c ****       rtb_Gain3 = -rtb_Saturation - rtb_Saturation1;
1497:Src/BLDC_controller.c ****       if (rtb_Gain3 > 32767) {
1498:Src/BLDC_controller.c ****         rtb_Gain3 = 32767;
1499:Src/BLDC_controller.c ****       } else {
1500:Src/BLDC_controller.c ****         if (rtb_Gain3 < -32768) {
1501:Src/BLDC_controller.c ****           rtb_Gain3 = -32768;
1502:Src/BLDC_controller.c ****         }
1503:Src/BLDC_controller.c ****       }
1504:Src/BLDC_controller.c **** 
1505:Src/BLDC_controller.c ****       rtb_Saturation = (int16_T)rtb_Gain3;
1506:Src/BLDC_controller.c **** 
1507:Src/BLDC_controller.c ****       /* End of Sum: '<S55>/Sum1' */
ARM GAS  /tmp/cccGHnrd.s 			page 79


1508:Src/BLDC_controller.c ****       /* End of Outputs for SubSystem: '<S49>/Clarke_PhasesBC' */
1509:Src/BLDC_controller.c ****     } else {
1510:Src/BLDC_controller.c ****       /* Outputs for IfAction SubSystem: '<S49>/Clarke_PhasesAC' incorporates:
1511:Src/BLDC_controller.c ****        *  ActionPort: '<S54>/Action Port'
1512:Src/BLDC_controller.c ****        */
1513:Src/BLDC_controller.c ****       /* Gain: '<S54>/Gain4' */
1514:Src/BLDC_controller.c ****       rtb_Gain3 = 18919 * rtb_Saturation;
1515:Src/BLDC_controller.c **** 
1516:Src/BLDC_controller.c ****       /* Gain: '<S54>/Gain2' */
1517:Src/BLDC_controller.c ****       rtb_Sum1_jt = 18919 * rtb_Saturation1;
1518:Src/BLDC_controller.c **** 
1519:Src/BLDC_controller.c ****       /* Sum: '<S54>/Sum1' incorporates:
1520:Src/BLDC_controller.c ****        *  Gain: '<S54>/Gain2'
1521:Src/BLDC_controller.c ****        *  Gain: '<S54>/Gain4'
1522:Src/BLDC_controller.c ****        */
1523:Src/BLDC_controller.c ****       rtb_Gain3 = -(((rtb_Gain3 < 0 ? 32767 : 0) + rtb_Gain3) >> 15) - (int16_T)
1524:Src/BLDC_controller.c ****         (((rtb_Sum1_jt < 0 ? 16383 : 0) + rtb_Sum1_jt) >> 14);
1525:Src/BLDC_controller.c ****       if (rtb_Gain3 > 32767) {
1526:Src/BLDC_controller.c ****         rtb_Gain3 = 32767;
1527:Src/BLDC_controller.c ****       } else {
1528:Src/BLDC_controller.c ****         if (rtb_Gain3 < -32768) {
1529:Src/BLDC_controller.c ****           rtb_Gain3 = -32768;
1530:Src/BLDC_controller.c ****         }
1531:Src/BLDC_controller.c ****       }
1532:Src/BLDC_controller.c **** 
1533:Src/BLDC_controller.c ****       rtb_Merge1 = (int16_T)rtb_Gain3;
1534:Src/BLDC_controller.c **** 
1535:Src/BLDC_controller.c ****       /* End of Sum: '<S54>/Sum1' */
1536:Src/BLDC_controller.c ****       /* End of Outputs for SubSystem: '<S49>/Clarke_PhasesAC' */
1537:Src/BLDC_controller.c ****     }
1538:Src/BLDC_controller.c **** 
1539:Src/BLDC_controller.c ****     /* End of If: '<S49>/If1' */
1540:Src/BLDC_controller.c **** 
1541:Src/BLDC_controller.c ****     /* PreLookup: '<S52>/a_elecAngle_XA' */
1542:Src/BLDC_controller.c ****     rtb_a_elecAngle_XA_g = plook_u8s16_evencka(rtb_Merge_m, 0, 128U, 180U);
 2768              		.loc 1 1542 5 is_stmt 1 view .LVU939
 2769              		.loc 1 1542 28 is_stmt 0 view .LVU940
 2770 03ee B423     		movs	r3, #180
 2771              	.LVL276:
 2772              		.loc 1 1542 28 view .LVU941
 2773 03f0 8022     		movs	r2, #128
 2774 03f2 0021     		movs	r1, #0
 2775 03f4 0898     		ldr	r0, [sp, #32]
 2776 03f6 FFF7FEFF 		bl	plook_u8s16_evencka
 2777              	.LVL277:
1543:Src/BLDC_controller.c **** 
1544:Src/BLDC_controller.c ****     /* Interpolation_n-D: '<S52>/r_sin_M1' */
1545:Src/BLDC_controller.c ****     rtDW->r_sin_M1 = rtConstP.r_sin_M1_Table[rtb_a_elecAngle_XA_g];
 2778              		.loc 1 1545 5 is_stmt 1 view .LVU942
 2779              		.loc 1 1545 45 is_stmt 0 view .LVU943
 2780 03fa 9A4B     		ldr	r3, .L471
 2781 03fc 33F91020 		ldrsh	r2, [r3, r0, lsl #1]
 2782              		.loc 1 1545 20 view .LVU944
 2783 0400 A4F87C20 		strh	r2, [r4, #124]	@ movhi
1546:Src/BLDC_controller.c **** 
1547:Src/BLDC_controller.c ****     /* Interpolation_n-D: '<S52>/r_cos_M1' */
1548:Src/BLDC_controller.c ****     rtDW->r_cos_M1 = rtConstP.r_cos_M1_Table[rtb_a_elecAngle_XA_g];
ARM GAS  /tmp/cccGHnrd.s 			page 80


 2784              		.loc 1 1548 5 is_stmt 1 view .LVU945
 2785              		.loc 1 1548 45 is_stmt 0 view .LVU946
 2786 0404 B430     		adds	r0, r0, #180
 2787              	.LVL278:
 2788              		.loc 1 1548 45 view .LVU947
 2789 0406 03EB4003 		add	r3, r3, r0, lsl #1
 2790 040a B3F90230 		ldrsh	r3, [r3, #2]
 2791              		.loc 1 1548 20 view .LVU948
 2792 040e A4F87E30 		strh	r3, [r4, #126]	@ movhi
1549:Src/BLDC_controller.c **** 
1550:Src/BLDC_controller.c ****     /* If: '<S45>/If2' incorporates:
1551:Src/BLDC_controller.c ****      *  Constant: '<S50>/cf_currFilt'
1552:Src/BLDC_controller.c ****      *  Inport: '<Root>/b_motEna'
1553:Src/BLDC_controller.c ****      */
1554:Src/BLDC_controller.c ****     rtb_Sum2_h = rtDW->If2_ActiveSubsystem_a;
 2793              		.loc 1 1554 5 is_stmt 1 view .LVU949
 2794              		.loc 1 1554 16 is_stmt 0 view .LVU950
 2795 0412 94F99830 		ldrsb	r3, [r4, #152]
 2796              	.LVL279:
1555:Src/BLDC_controller.c ****     UnitDelay3 = -1;
 2797              		.loc 1 1555 5 is_stmt 1 view .LVU951
1556:Src/BLDC_controller.c ****     if (rtU->b_motEna) {
 2798              		.loc 1 1556 5 view .LVU952
 2799              		.loc 1 1556 12 is_stmt 0 view .LVU953
 2800 0416 3278     		ldrb	r2, [r6]	@ zero_extendqisi2
 2801              		.loc 1 1556 8 view .LVU954
 2802 0418 0AB9     		cbnz	r2, .L211
1555:Src/BLDC_controller.c ****     UnitDelay3 = -1;
 2803              		.loc 1 1555 16 view .LVU955
 2804 041a 4FF0FF3B 		mov	fp, #-1
 2805              	.L211:
 2806              	.LVL280:
1557:Src/BLDC_controller.c ****       UnitDelay3 = 0;
1558:Src/BLDC_controller.c ****     }
1559:Src/BLDC_controller.c **** 
1560:Src/BLDC_controller.c ****     rtDW->If2_ActiveSubsystem_a = UnitDelay3;
 2807              		.loc 1 1560 5 is_stmt 1 view .LVU956
 2808              		.loc 1 1560 33 is_stmt 0 view .LVU957
 2809 041e 84F898B0 		strb	fp, [r4, #152]
1561:Src/BLDC_controller.c ****     if ((rtb_Sum2_h != UnitDelay3) && (rtb_Sum2_h == 0)) {
 2810              		.loc 1 1561 5 is_stmt 1 view .LVU958
 2811              		.loc 1 1561 8 is_stmt 0 view .LVU959
 2812 0422 9B45     		cmp	fp, r3
 2813 0424 07D0     		beq	.L212
 2814              		.loc 1 1561 36 discriminator 1 view .LVU960
 2815 0426 33B9     		cbnz	r3, .L212
1562:Src/BLDC_controller.c ****       /* Disable for Outport: '<S50>/iq' */
1563:Src/BLDC_controller.c ****       rtDW->DataTypeConversion[0] = 0;
 2816              		.loc 1 1563 7 is_stmt 1 view .LVU961
 2817              		.loc 1 1563 35 is_stmt 0 view .LVU962
 2818 0428 0022     		movs	r2, #0
 2819 042a A4F85220 		strh	r2, [r4, #82]	@ movhi
1564:Src/BLDC_controller.c **** 
1565:Src/BLDC_controller.c ****       /* Disable for Outport: '<S50>/iqAbs' */
1566:Src/BLDC_controller.c ****       rtDW->Abs5_h = 0;
 2820              		.loc 1 1566 7 is_stmt 1 view .LVU963
 2821              		.loc 1 1566 20 is_stmt 0 view .LVU964
ARM GAS  /tmp/cccGHnrd.s 			page 81


 2822 042e A4F87820 		strh	r2, [r4, #120]	@ movhi
1567:Src/BLDC_controller.c **** 
1568:Src/BLDC_controller.c ****       /* Disable for Outport: '<S50>/id' */
1569:Src/BLDC_controller.c ****       rtDW->DataTypeConversion[1] = 0;
 2823              		.loc 1 1569 7 is_stmt 1 view .LVU965
 2824              		.loc 1 1569 35 is_stmt 0 view .LVU966
 2825 0432 A4F85420 		strh	r2, [r4, #84]	@ movhi
 2826              	.L212:
1570:Src/BLDC_controller.c ****     }
1571:Src/BLDC_controller.c **** 
1572:Src/BLDC_controller.c ****     if (UnitDelay3 == 0) {
 2827              		.loc 1 1572 5 is_stmt 1 view .LVU967
 2828              		.loc 1 1572 8 is_stmt 0 view .LVU968
 2829 0436 BBF1000F 		cmp	fp, #0
 2830 043a 40F0A380 		bne	.L199
1573:Src/BLDC_controller.c ****       if (0 != rtb_Sum2_h) {
 2831              		.loc 1 1573 7 is_stmt 1 view .LVU969
 2832              		.loc 1 1573 10 is_stmt 0 view .LVU970
 2833 043e 002B     		cmp	r3, #0
 2834 0440 73D1     		bne	.L443
 2835              	.LVL281:
 2836              	.L213:
1574:Src/BLDC_controller.c ****         /* SystemReset for IfAction SubSystem: '<S45>/Current_Filtering' incorporates:
1575:Src/BLDC_controller.c ****          *  ActionPort: '<S50>/Action Port'
1576:Src/BLDC_controller.c ****          */
1577:Src/BLDC_controller.c **** 
1578:Src/BLDC_controller.c ****         /* SystemReset for Atomic SubSystem: '<S50>/Low_Pass_Filter' */
1579:Src/BLDC_controller.c **** 
1580:Src/BLDC_controller.c ****         /* SystemReset for If: '<S45>/If2' */
1581:Src/BLDC_controller.c ****         Low_Pass_Filter_Reset(&rtDW->Low_Pass_Filter_m);
1582:Src/BLDC_controller.c **** 
1583:Src/BLDC_controller.c ****         /* End of SystemReset for SubSystem: '<S50>/Low_Pass_Filter' */
1584:Src/BLDC_controller.c **** 
1585:Src/BLDC_controller.c ****         /* End of SystemReset for SubSystem: '<S45>/Current_Filtering' */
1586:Src/BLDC_controller.c ****       }
1587:Src/BLDC_controller.c **** 
1588:Src/BLDC_controller.c ****       /* Sum: '<S51>/Sum6' incorporates:
1589:Src/BLDC_controller.c ****        *  Product: '<S51>/Divide1'
1590:Src/BLDC_controller.c ****        *  Product: '<S51>/Divide4'
1591:Src/BLDC_controller.c ****        */
1592:Src/BLDC_controller.c ****       rtb_Gain3 = (int16_T)((rtb_Merge1 * rtDW->r_cos_M1) >> 14) - (int16_T)
 2837              		.loc 1 1592 7 is_stmt 1 view .LVU971
 2838              		.loc 1 1592 41 is_stmt 0 view .LVU972
 2839 0442 4246     		mov	r2, r8
 2840              		.loc 1 1592 47 view .LVU973
 2841 0444 B4F97E30 		ldrsh	r3, [r4, #126]
 2842              		.loc 1 1592 41 view .LVU974
 2843 0448 03FB08F8 		mul	r8, r3, r8
 2844              	.LVL282:
 2845              		.loc 1 1592 19 view .LVU975
 2846 044c 48F38F38 		sbfx	r8, r8, #14, #16
1593:Src/BLDC_controller.c ****         ((rtb_Saturation * rtDW->r_sin_M1) >> 14);
 2847              		.loc 1 1593 26 view .LVU976
 2848 0450 5046     		mov	r0, r10
 2849              		.loc 1 1593 32 view .LVU977
 2850 0452 B4F97C10 		ldrsh	r1, [r4, #124]
 2851              		.loc 1 1593 26 view .LVU978
ARM GAS  /tmp/cccGHnrd.s 			page 82


 2852 0456 01FB0AFA 		mul	r10, r1, r10
 2853              	.LVL283:
1592:Src/BLDC_controller.c ****         ((rtb_Saturation * rtDW->r_sin_M1) >> 14);
 2854              		.loc 1 1592 68 view .LVU979
 2855 045a 4AF38F3A 		sbfx	r10, r10, #14, #16
1592:Src/BLDC_controller.c ****         ((rtb_Saturation * rtDW->r_sin_M1) >> 14);
 2856              		.loc 1 1592 17 view .LVU980
 2857 045e A8EB0A08 		sub	r8, r8, r10
 2858              	.LVL284:
1594:Src/BLDC_controller.c ****       if (rtb_Gain3 > 32767) {
 2859              		.loc 1 1594 7 is_stmt 1 view .LVU981
 2860              		.loc 1 1594 10 is_stmt 0 view .LVU982
 2861 0462 B8F5004F 		cmp	r8, #32768
 2862 0466 65DA     		bge	.L371
1595:Src/BLDC_controller.c ****         rtb_Gain3 = 32767;
1596:Src/BLDC_controller.c ****       } else {
1597:Src/BLDC_controller.c ****         if (rtb_Gain3 < -32768) {
 2863              		.loc 1 1597 9 is_stmt 1 view .LVU983
 2864              		.loc 1 1597 12 is_stmt 0 view .LVU984
 2865 0468 18F5004F 		cmn	r8, #32768
 2866 046c 64DA     		bge	.L214
1598:Src/BLDC_controller.c ****           rtb_Gain3 = -32768;
 2867              		.loc 1 1598 21 view .LVU985
 2868 046e DFF8F881 		ldr	r8, .L471+4
 2869              	.LVL285:
 2870              		.loc 1 1598 21 view .LVU986
 2871 0472 61E0     		b	.L214
 2872              	.LVL286:
 2873              	.L200:
1475:Src/BLDC_controller.c ****       /* Outputs for IfAction SubSystem: '<S49>/Clarke_PhasesBC' incorporates:
 2874              		.loc 1 1475 12 is_stmt 1 view .LVU987
1475:Src/BLDC_controller.c ****       /* Outputs for IfAction SubSystem: '<S49>/Clarke_PhasesBC' incorporates:
 2875              		.loc 1 1475 15 is_stmt 0 view .LVU988
 2876 0474 012B     		cmp	r3, #1
 2877 0476 1ED0     		beq	.L444
1514:Src/BLDC_controller.c **** 
 2878              		.loc 1 1514 7 is_stmt 1 view .LVU989
1514:Src/BLDC_controller.c **** 
 2879              		.loc 1 1514 17 is_stmt 0 view .LVU990
 2880 0478 44F6E713 		movw	r3, #18919
 2881 047c 03FB0AF2 		mul	r2, r3, r10
 2882              	.LVL287:
1517:Src/BLDC_controller.c **** 
 2883              		.loc 1 1517 7 is_stmt 1 view .LVU991
1517:Src/BLDC_controller.c **** 
 2884              		.loc 1 1517 19 is_stmt 0 view .LVU992
 2885 0480 03FB08F3 		mul	r3, r3, r8
 2886              	.LVL288:
1523:Src/BLDC_controller.c ****         (((rtb_Sum1_jt < 0 ? 16383 : 0) + rtb_Sum1_jt) >> 14);
 2887              		.loc 1 1523 7 is_stmt 1 view .LVU993
1523:Src/BLDC_controller.c ****         (((rtb_Sum1_jt < 0 ? 16383 : 0) + rtb_Sum1_jt) >> 14);
 2888              		.loc 1 1523 45 is_stmt 0 view .LVU994
 2889 0484 002A     		cmp	r2, #0
 2890 0486 45DB     		blt	.L445
1523:Src/BLDC_controller.c ****         (((rtb_Sum1_jt < 0 ? 16383 : 0) + rtb_Sum1_jt) >> 14);
 2891              		.loc 1 1523 45 discriminator 2 view .LVU995
 2892 0488 4FF00008 		mov	r8, #0
ARM GAS  /tmp/cccGHnrd.s 			page 83


 2893              	.LVL289:
 2894              	.L208:
1523:Src/BLDC_controller.c ****         (((rtb_Sum1_jt < 0 ? 16383 : 0) + rtb_Sum1_jt) >> 14);
 2895              		.loc 1 1523 50 discriminator 4 view .LVU996
 2896 048c 9044     		add	r8, r8, r2
1523:Src/BLDC_controller.c ****         (((rtb_Sum1_jt < 0 ? 16383 : 0) + rtb_Sum1_jt) >> 14);
 2897              		.loc 1 1523 63 discriminator 4 view .LVU997
 2898 048e 4FEAE838 		asr	r8, r8, #15
1523:Src/BLDC_controller.c ****         (((rtb_Sum1_jt < 0 ? 16383 : 0) + rtb_Sum1_jt) >> 14);
 2899              		.loc 1 1523 19 discriminator 4 view .LVU998
 2900 0492 C8F10008 		rsb	r8, r8, #0
1524:Src/BLDC_controller.c ****       if (rtb_Gain3 > 32767) {
 2901              		.loc 1 1524 36 view .LVU999
 2902 0496 002B     		cmp	r3, #0
 2903 0498 3FDB     		blt	.L446
1524:Src/BLDC_controller.c ****       if (rtb_Gain3 > 32767) {
 2904              		.loc 1 1524 36 discriminator 2 view .LVU1000
 2905 049a 0022     		movs	r2, #0
 2906              	.LVL290:
 2907              	.L209:
1524:Src/BLDC_controller.c ****       if (rtb_Gain3 > 32767) {
 2908              		.loc 1 1524 41 discriminator 4 view .LVU1001
 2909 049c 1344     		add	r3, r3, r2
 2910              	.LVL291:
1523:Src/BLDC_controller.c ****         (((rtb_Sum1_jt < 0 ? 16383 : 0) + rtb_Sum1_jt) >> 14);
 2911              		.loc 1 1523 72 view .LVU1002
 2912 049e 43F38F33 		sbfx	r3, r3, #14, #16
1523:Src/BLDC_controller.c ****         (((rtb_Sum1_jt < 0 ? 16383 : 0) + rtb_Sum1_jt) >> 14);
 2913              		.loc 1 1523 17 view .LVU1003
 2914 04a2 A8EB0303 		sub	r3, r8, r3
 2915              	.LVL292:
1525:Src/BLDC_controller.c ****         rtb_Gain3 = 32767;
 2916              		.loc 1 1525 7 is_stmt 1 view .LVU1004
1525:Src/BLDC_controller.c ****         rtb_Gain3 = 32767;
 2917              		.loc 1 1525 10 is_stmt 0 view .LVU1005
 2918 04a6 B3F5004F 		cmp	r3, #32768
 2919 04aa 39DA     		bge	.L369
1528:Src/BLDC_controller.c ****           rtb_Gain3 = -32768;
 2920              		.loc 1 1528 9 is_stmt 1 view .LVU1006
1528:Src/BLDC_controller.c ****           rtb_Gain3 = -32768;
 2921              		.loc 1 1528 12 is_stmt 0 view .LVU1007
 2922 04ac 13F5004F 		cmn	r3, #32768
 2923 04b0 38DA     		bge	.L210
1529:Src/BLDC_controller.c ****         }
 2924              		.loc 1 1529 21 view .LVU1008
 2925 04b2 6D4B     		ldr	r3, .L471+4
 2926              	.LVL293:
1529:Src/BLDC_controller.c ****         }
 2927              		.loc 1 1529 21 view .LVU1009
 2928 04b4 36E0     		b	.L210
 2929              	.LVL294:
 2930              	.L444:
1480:Src/BLDC_controller.c ****       if (rtb_Gain3 > 32767) {
 2931              		.loc 1 1480 7 is_stmt 1 view .LVU1010
1480:Src/BLDC_controller.c ****       if (rtb_Gain3 > 32767) {
 2932              		.loc 1 1480 34 is_stmt 0 view .LVU1011
 2933 04b6 5346     		mov	r3, r10
ARM GAS  /tmp/cccGHnrd.s 			page 84


 2934 04b8 4146     		mov	r1, r8
1480:Src/BLDC_controller.c ****       if (rtb_Gain3 > 32767) {
 2935              		.loc 1 1480 17 view .LVU1012
 2936 04ba AAEB0808 		sub	r8, r10, r8
 2937              	.LVL295:
1481:Src/BLDC_controller.c ****         rtb_Gain3 = 32767;
 2938              		.loc 1 1481 7 is_stmt 1 view .LVU1013
1481:Src/BLDC_controller.c ****         rtb_Gain3 = 32767;
 2939              		.loc 1 1481 10 is_stmt 0 view .LVU1014
 2940 04be B8F5004F 		cmp	r8, #32768
 2941 04c2 0EDA     		bge	.L362
1484:Src/BLDC_controller.c ****           rtb_Gain3 = -32768;
 2942              		.loc 1 1484 9 is_stmt 1 view .LVU1015
1484:Src/BLDC_controller.c ****           rtb_Gain3 = -32768;
 2943              		.loc 1 1484 12 is_stmt 0 view .LVU1016
 2944 04c4 18F5004F 		cmn	r8, #32768
 2945 04c8 1BDB     		blt	.L363
1492:Src/BLDC_controller.c ****       rtb_Merge1 = (int16_T)(((rtb_Gain3 < 0 ? 32767 : 0) + rtb_Gain3) >> 15);
 2946              		.loc 1 1492 7 is_stmt 1 view .LVU1017
1492:Src/BLDC_controller.c ****       rtb_Merge1 = (int16_T)(((rtb_Gain3 < 0 ? 32767 : 0) + rtb_Gain3) >> 15);
 2947              		.loc 1 1492 17 is_stmt 0 view .LVU1018
 2948 04ca 44F6E712 		movw	r2, #18919
 2949 04ce 02FB08F2 		mul	r2, r2, r8
 2950              	.LVL296:
1493:Src/BLDC_controller.c **** 
 2951              		.loc 1 1493 7 is_stmt 1 view .LVU1019
1493:Src/BLDC_controller.c **** 
 2952              		.loc 1 1493 54 is_stmt 0 view .LVU1020
 2953 04d2 002A     		cmp	r2, #0
 2954 04d4 02DB     		blt	.L447
1493:Src/BLDC_controller.c **** 
 2955              		.loc 1 1493 54 discriminator 2 view .LVU1021
 2956 04d6 4FF00008 		mov	r8, #0
 2957 04da 05E0     		b	.L206
 2958              	.L447:
1493:Src/BLDC_controller.c **** 
 2959              		.loc 1 1493 54 discriminator 1 view .LVU1022
 2960 04dc 47F6FF78 		movw	r8, #32767
 2961 04e0 02E0     		b	.L206
 2962              	.LVL297:
 2963              	.L362:
1492:Src/BLDC_controller.c ****       rtb_Merge1 = (int16_T)(((rtb_Gain3 < 0 ? 32767 : 0) + rtb_Gain3) >> 15);
 2964              		.loc 1 1492 17 view .LVU1023
 2965 04e2 624A     		ldr	r2, .L471+8
1493:Src/BLDC_controller.c **** 
 2966              		.loc 1 1493 54 discriminator 2 view .LVU1024
 2967 04e4 4FF00008 		mov	r8, #0
 2968              	.LVL298:
 2969              	.L206:
1493:Src/BLDC_controller.c **** 
 2970              		.loc 1 1493 59 discriminator 4 view .LVU1025
 2971 04e8 9044     		add	r8, r8, r2
1493:Src/BLDC_controller.c **** 
 2972              		.loc 1 1493 18 discriminator 4 view .LVU1026
 2973 04ea 48F3CF38 		sbfx	r8, r8, #15, #16
 2974              	.LVL299:
1496:Src/BLDC_controller.c ****       if (rtb_Gain3 > 32767) {
ARM GAS  /tmp/cccGHnrd.s 			page 85


 2975              		.loc 1 1496 7 is_stmt 1 view .LVU1027
1496:Src/BLDC_controller.c ****       if (rtb_Gain3 > 32767) {
 2976              		.loc 1 1496 19 is_stmt 0 view .LVU1028
 2977 04ee 5B42     		rsbs	r3, r3, #0
1496:Src/BLDC_controller.c ****       if (rtb_Gain3 > 32767) {
 2978              		.loc 1 1496 17 view .LVU1029
 2979 04f0 5B1A     		subs	r3, r3, r1
 2980              	.LVL300:
1497:Src/BLDC_controller.c ****         rtb_Gain3 = 32767;
 2981              		.loc 1 1497 7 is_stmt 1 view .LVU1030
1497:Src/BLDC_controller.c ****         rtb_Gain3 = 32767;
 2982              		.loc 1 1497 10 is_stmt 0 view .LVU1031
 2983 04f2 B3F5004F 		cmp	r3, #32768
 2984 04f6 08DA     		bge	.L365
1500:Src/BLDC_controller.c ****           rtb_Gain3 = -32768;
 2985              		.loc 1 1500 9 is_stmt 1 view .LVU1032
1500:Src/BLDC_controller.c ****           rtb_Gain3 = -32768;
 2986              		.loc 1 1500 12 is_stmt 0 view .LVU1033
 2987 04f8 13F5004F 		cmn	r3, #32768
 2988 04fc 07DA     		bge	.L207
1501:Src/BLDC_controller.c ****         }
 2989              		.loc 1 1501 21 view .LVU1034
 2990 04fe 5A4B     		ldr	r3, .L471+4
 2991              	.LVL301:
1501:Src/BLDC_controller.c ****         }
 2992              		.loc 1 1501 21 view .LVU1035
 2993 0500 05E0     		b	.L207
 2994              	.LVL302:
 2995              	.L363:
1492:Src/BLDC_controller.c ****       rtb_Merge1 = (int16_T)(((rtb_Gain3 < 0 ? 32767 : 0) + rtb_Gain3) >> 15);
 2996              		.loc 1 1492 17 view .LVU1036
 2997 0502 5B4A     		ldr	r2, .L471+12
1493:Src/BLDC_controller.c **** 
 2998              		.loc 1 1493 54 discriminator 1 view .LVU1037
 2999 0504 47F6FF78 		movw	r8, #32767
 3000              	.LVL303:
1493:Src/BLDC_controller.c **** 
 3001              		.loc 1 1493 54 discriminator 1 view .LVU1038
 3002 0508 EEE7     		b	.L206
 3003              	.LVL304:
 3004              	.L365:
1498:Src/BLDC_controller.c ****       } else {
 3005              		.loc 1 1498 19 view .LVU1039
 3006 050a 47F6FF73 		movw	r3, #32767
 3007              	.LVL305:
 3008              	.L207:
1505:Src/BLDC_controller.c **** 
 3009              		.loc 1 1505 7 is_stmt 1 view .LVU1040
1505:Src/BLDC_controller.c **** 
 3010              		.loc 1 1505 22 is_stmt 0 view .LVU1041
 3011 050e 0FFA83FA 		sxth	r10, r3
 3012              	.LVL306:
1505:Src/BLDC_controller.c **** 
 3013              		.loc 1 1505 22 view .LVU1042
 3014 0512 6CE7     		b	.L204
 3015              	.LVL307:
 3016              	.L445:
ARM GAS  /tmp/cccGHnrd.s 			page 86


1523:Src/BLDC_controller.c ****         (((rtb_Sum1_jt < 0 ? 16383 : 0) + rtb_Sum1_jt) >> 14);
 3017              		.loc 1 1523 45 discriminator 1 view .LVU1043
 3018 0514 47F6FF78 		movw	r8, #32767
 3019              	.LVL308:
1523:Src/BLDC_controller.c ****         (((rtb_Sum1_jt < 0 ? 16383 : 0) + rtb_Sum1_jt) >> 14);
 3020              		.loc 1 1523 45 discriminator 1 view .LVU1044
 3021 0518 B8E7     		b	.L208
 3022              	.L446:
1524:Src/BLDC_controller.c ****       if (rtb_Gain3 > 32767) {
 3023              		.loc 1 1524 36 discriminator 1 view .LVU1045
 3024 051a 43F6FF72 		movw	r2, #16383
 3025              	.LVL309:
1524:Src/BLDC_controller.c ****       if (rtb_Gain3 > 32767) {
 3026              		.loc 1 1524 36 discriminator 1 view .LVU1046
 3027 051e BDE7     		b	.L209
 3028              	.LVL310:
 3029              	.L369:
1526:Src/BLDC_controller.c ****       } else {
 3030              		.loc 1 1526 19 view .LVU1047
 3031 0520 47F6FF73 		movw	r3, #32767
 3032              	.LVL311:
 3033              	.L210:
1533:Src/BLDC_controller.c **** 
 3034              		.loc 1 1533 7 is_stmt 1 view .LVU1048
1533:Src/BLDC_controller.c **** 
 3035              		.loc 1 1533 18 is_stmt 0 view .LVU1049
 3036 0524 0FFA83F8 		sxth	r8, r3
 3037              	.LVL312:
1533:Src/BLDC_controller.c **** 
 3038              		.loc 1 1533 18 view .LVU1050
 3039 0528 61E7     		b	.L204
 3040              	.LVL313:
 3041              	.L443:
1581:Src/BLDC_controller.c **** 
 3042              		.loc 1 1581 9 is_stmt 1 view .LVU1051
 3043 052a 04F13800 		add	r0, r4, #56
 3044              	.LVL314:
1581:Src/BLDC_controller.c **** 
 3045              		.loc 1 1581 9 is_stmt 0 view .LVU1052
 3046 052e FFF7FEFF 		bl	Low_Pass_Filter_Reset
 3047              	.LVL315:
1581:Src/BLDC_controller.c **** 
 3048              		.loc 1 1581 9 view .LVU1053
 3049 0532 86E7     		b	.L213
 3050              	.LVL316:
 3051              	.L371:
1595:Src/BLDC_controller.c ****       } else {
 3052              		.loc 1 1595 19 view .LVU1054
 3053 0534 47F6FF78 		movw	r8, #32767
 3054              	.LVL317:
 3055              	.L214:
1599:Src/BLDC_controller.c ****         }
1600:Src/BLDC_controller.c ****       }
1601:Src/BLDC_controller.c **** 
1602:Src/BLDC_controller.c ****       /* Outputs for IfAction SubSystem: '<S45>/Current_Filtering' incorporates:
1603:Src/BLDC_controller.c ****        *  ActionPort: '<S50>/Action Port'
1604:Src/BLDC_controller.c ****        */
ARM GAS  /tmp/cccGHnrd.s 			page 87


1605:Src/BLDC_controller.c ****       /* SignalConversion: '<S50>/TmpSignal ConversionAtLow_Pass_FilterInport1' incorporates:
1606:Src/BLDC_controller.c ****        *  Sum: '<S51>/Sum6'
1607:Src/BLDC_controller.c ****        */
1608:Src/BLDC_controller.c ****       rtb_TmpSignalConversionAtLow_Pa[0] = (int16_T)rtb_Gain3;
 3056              		.loc 1 1608 7 is_stmt 1 view .LVU1055
 3057              		.loc 1 1608 42 is_stmt 0 view .LVU1056
 3058 0538 ADF84080 		strh	r8, [sp, #64]	@ movhi
1609:Src/BLDC_controller.c **** 
1610:Src/BLDC_controller.c ****       /* End of Outputs for SubSystem: '<S45>/Current_Filtering' */
1611:Src/BLDC_controller.c **** 
1612:Src/BLDC_controller.c ****       /* Sum: '<S51>/Sum1' incorporates:
1613:Src/BLDC_controller.c ****        *  Product: '<S51>/Divide2'
1614:Src/BLDC_controller.c ****        *  Product: '<S51>/Divide3'
1615:Src/BLDC_controller.c ****        */
1616:Src/BLDC_controller.c ****       rtb_Gain3 = (int16_T)((rtb_Saturation * rtDW->r_cos_M1) >> 14) + (int16_T)
 3059              		.loc 1 1616 7 is_stmt 1 view .LVU1057
 3060              		.loc 1 1616 45 is_stmt 0 view .LVU1058
 3061 053c 00FB03F3 		mul	r3, r0, r3
 3062              		.loc 1 1616 19 view .LVU1059
 3063 0540 43F38F33 		sbfx	r3, r3, #14, #16
1617:Src/BLDC_controller.c ****         ((rtb_Merge1 * rtDW->r_sin_M1) >> 14);
 3064              		.loc 1 1617 22 view .LVU1060
 3065 0544 01FB02F2 		mul	r2, r1, r2
1616:Src/BLDC_controller.c ****         ((rtb_Merge1 * rtDW->r_sin_M1) >> 14);
 3066              		.loc 1 1616 72 view .LVU1061
 3067 0548 42F38F32 		sbfx	r2, r2, #14, #16
1616:Src/BLDC_controller.c ****         ((rtb_Merge1 * rtDW->r_sin_M1) >> 14);
 3068              		.loc 1 1616 17 view .LVU1062
 3069 054c 1344     		add	r3, r3, r2
 3070              	.LVL318:
1618:Src/BLDC_controller.c ****       if (rtb_Gain3 > 32767) {
 3071              		.loc 1 1618 7 is_stmt 1 view .LVU1063
 3072              		.loc 1 1618 10 is_stmt 0 view .LVU1064
 3073 054e B3F5004F 		cmp	r3, #32768
 3074 0552 04DA     		bge	.L373
1619:Src/BLDC_controller.c ****         rtb_Gain3 = 32767;
1620:Src/BLDC_controller.c ****       } else {
1621:Src/BLDC_controller.c ****         if (rtb_Gain3 < -32768) {
 3075              		.loc 1 1621 9 is_stmt 1 view .LVU1065
 3076              		.loc 1 1621 12 is_stmt 0 view .LVU1066
 3077 0554 13F5004F 		cmn	r3, #32768
 3078 0558 03DA     		bge	.L215
1622:Src/BLDC_controller.c ****           rtb_Gain3 = -32768;
 3079              		.loc 1 1622 21 view .LVU1067
 3080 055a 434B     		ldr	r3, .L471+4
 3081              	.LVL319:
 3082              		.loc 1 1622 21 view .LVU1068
 3083 055c 01E0     		b	.L215
 3084              	.LVL320:
 3085              	.L373:
1619:Src/BLDC_controller.c ****         rtb_Gain3 = 32767;
 3086              		.loc 1 1619 19 view .LVU1069
 3087 055e 47F6FF73 		movw	r3, #32767
 3088              	.LVL321:
 3089              	.L215:
1623:Src/BLDC_controller.c ****         }
1624:Src/BLDC_controller.c ****       }
ARM GAS  /tmp/cccGHnrd.s 			page 88


1625:Src/BLDC_controller.c **** 
1626:Src/BLDC_controller.c ****       /* Outputs for IfAction SubSystem: '<S45>/Current_Filtering' incorporates:
1627:Src/BLDC_controller.c ****        *  ActionPort: '<S50>/Action Port'
1628:Src/BLDC_controller.c ****        */
1629:Src/BLDC_controller.c ****       /* SignalConversion: '<S50>/TmpSignal ConversionAtLow_Pass_FilterInport1' incorporates:
1630:Src/BLDC_controller.c ****        *  Sum: '<S51>/Sum1'
1631:Src/BLDC_controller.c ****        */
1632:Src/BLDC_controller.c ****       rtb_TmpSignalConversionAtLow_Pa[1] = (int16_T)rtb_Gain3;
 3090              		.loc 1 1632 7 is_stmt 1 view .LVU1070
 3091              		.loc 1 1632 42 is_stmt 0 view .LVU1071
